R?td
P?td
Q?td
Android
r25c
9519653
}??ENbl'] 
o\????U{?
U2@ ?
???D?
d$F@@?
???~
B??!?
 0( 
??P?
@ ?@?
P"!`
hb!??
@?``
@ ??
???hB
? ? 
@? "*$
?M$$
?!@@
 ??$
  @?D@
0?DB
??0??
HF! ?
E ??@
t6x3(
?D  
D $$
?@?P
P???
?? `
??=??
??>{
?? ?
 @@?
`A&!
8(?@
?k?4~?~ ???8~?
'???K
?.?7???
_*??P?????U
?K?\?l???????\\R
???*?
?\?l??????w?l#A??W
=???2????F%
?<?}?
FR66?
???v[jL??
?\?l??????
=?S??J?
???:
????V??QX???(*{]??h
?r?bcX?m
???Zrl?p?n:?
:??7?m?\?l?\V
?n?r??
?[?m
?$v]?Z?m
??-?6F?
?\?l\?m
???#?T,,O
??!???c?
?$??
?????g
N*??????????
G???`?m
???~f
???h?.
?^?!?d?y)#?
?``?Z???>???7?t?
]b?m
0?bv?3?6b?m
/?!???n&???4}C?
?!"t??'???
?p.????[?%
?0?f?,???h? ??R???/?9??T????zY???
a<??
?z??
 ???h?m
;??=??
?/k?j?m
:??~r?1????
??1 ??!?b?G???t
??????
r??>?o??qA@??
?t???u?;???0&?
$vZ??A??
??4?8??1n?m
??A?
?H?N?z?C??
@???n?m
????P?*?
J_?BZ?????{E??
? vR$q?
?O??'??
???F??
?1@5
??/?6????0?%?????I??
PJ??@???t}B?
??eI??
v?5??V?K??
?????@??t??????k?I?*?[??;??h????f?R&?)c??8?
?2^??????
v?(?k?F??T
?J?N??
?z?%?????n??N4???r
?{h??yN??
??t?MKrx??
???K?????
?$??
6'??z?B???Q??
???/US??
??!??
|?R??
y?n????;?(CBr
Yg??
c??/
?U??
p???????
?O?$?
,d)???????
???l??D?
{?DO??
]?<?U?@
x8??7>??"f?/
??)$??
h??{T????z.???V
.???6??/
LtPT,???_?
??5??6w
??.?DZ??L?
?^?|???L
z????
*??)???!I.Vl????
??vOmxu??H????0a?>????
)?KRp???
????
??h??????TkL?P?X)&??
???@
=>b6??4
y???/???5?P?'
?0D??
V?;?Z??D
???????
{?.C?InQ????k???@??????
9-?]t????~?yu??B????t(
V"????j??
???i?2
???A-6/???7??M??z??
u?Y?+??
Q:?\???
9???E??L?I?/?a?b??4????E??xB?&
>??X?????GF??s,?6n???
?????x*??=?'?
??k???5
?AH;?C????? >
??{???Im(??f?u?T/
?@L?!q
??`.Z?????b?[
?????"?W*??*
???B??^??qm??"?
I??4#NG+
A?pgQ?*R6???UMk?!????"?F?
,R6??c??
??v???W)?",R6?
diH??~G?????>
?.R6?\Et??<0????????M&|f
uo?0
0R6??A?a??h?2R6????
|???7?U4R6????l
\4R6??g???'O
???lq!?
J?d9"
S?,l??Z??|
?i????l4?A?
Mk?*^?V????|?
???l0???\??|&??5???l
??V??v^??|???lX/????w????@^??|???
???l:R6?V'??
??????l]
?b<R6????l????~????c??
??l?
Q?<??_?o?v?-
?+N??
??l?
>??@R6??,?fd??|fem??
??l@R6?f??|j{
?.?U
??l??????|@
??l?
%??z???\'??x~??.?m??+??
d????
z???????_???
??$n?
R66?
?&????f???g?c??n
4V???
??l??4?0zb?p?A?f5
??l?
?f??W
??-l??|z
?.?e?
??l??.???(?
??l?
?#+?K???
??lN?"???\'p??|?@
??l?
?(?r??|?]??
wg???%????
???H???
?Ez;??
p,m???)?
???_@t??????
b??8??kdQ?z??(
?r>???"??
?.??
??????
??????
???#????r?D?imFn???????
??X?
?N?@[>}?Vb??]?
??????$R?>
?????p
 ??<Hw??A?
?D?/D
wc??1O
+?????%??Tg?????;??
? ?_
?BNu2$ ?>?w?
AWA!G??@xGo???????gP???
?QV-???V?/?a?
???'
??U_?
???a?i??,????v?HE?%L?
??????Pi??:S
????
:????T
??0?
???UH?R?d2w
??:?
????? ?(+
0??@?4?
.O???0v?
?$+??? ?
???%?B8Q?
???KR????>??h????:@
!1??
?E???8?il
???jqn?`??
???/?
?????6
XB?'?(??%(
?}h]Sh????d
?B?E???U>?2??f???A?????
]????
g4?{F
?Q"?
2?e?2{??%?
l?-1??D
Qhd?Ls6
??pl???
???}??+??Rf??
?F%???W
g#*Hjj
?+g?#h?p?&??a?#1;.o????U?g+?u?
???????
?????
K?@?????3?T/?Io9(3
?x?%???d????m
??a???aE
D?~.}U??
?o)?!?8f
<c&??B?
=ji????9[t?H?????c? _??P?
?N?h???A??
???.??
YBE`??F?po???FN0[
?V?c??0}???
???s?-?
???Z?xWn
@????#O
???#?
????????
?????E??
Iu?Q??*6&???,??b?d 
/?~!{J
?Q?_??y?????b?d?
?????"?A5?t??V?b?dSq??? ??@?Mj???
V???nn?
XJ|?`??h
g>???P?+?^?N
>??????
?^E?}A???g~
&G(w
??j??
?????E\??z??H`?g
>?g$?????"?H?
??b?dwj????~??-pB?b?d?N^t???Hz?4?????r???1?A??2%t(?p/$??W??k??,?G??6/9
??^+? ???1O??????
?Z?.h0????4?J
??GxK????
??]C%?????H??4??h??T??S?b?ddX??MCm
?b?d???
b??r$Qd??S
Q?G??b+?-?t"q0?C????
?`????E
S?q??*??????{?@?W?g???Z?????NG
???A??{
???0K?
wc??
????~?>ws???K
????F?R??
uF?$;uW?A7
?????
?Cy?L=K)~*?|"?nb
??s?4?????d??cH????]?lV?h?Nn?I
U?qnu?oL?
y?]?l??5??EY???L?
??^r?{k?]?l??G_\?Q?z?o7?]?lD6c? %??$.w
?]?lB??
??(?M:?
?"???(v?
?]?l
b?L+?8?????
???o??]?l?!?B?]?l
e?#?.???D?P???{@s?????]?l??gT~a??d?C??]?lZ?????k 
/?]?lN?7?$4>`@
?W?]?l
BW?k?/?~
??T).??<
??]?l3?v??JX?F
??????j{0??%b?"
"??]?l??2??
q??cTK
W^O)??-|??Wn??????f
?f_??
???]?M"??]?l|e??
?q*?Q???]?l??&E?
????
?iQ??
"??!?*?N}<'
??v??Yf2?
N}r??]?l??'I??=b?
?]?l?;g>?]?l?.??>?D
$Z???
?-R?0n?]?l*???V%?9?
??lh??b?
1;r?
X??B????
J??t?[
%????N????
???p??T/???7Z%?;`IS>x???|??
?7O?
U?^~?D??
??????vS?
??r ?
?m??!?#@
Y&?P0?
[????
????
??Fp0??
s:&????
i6}?|????m?????n
c?]?lo?H??"?*)
??FVA
f??Xs?T?
?#Z??W?Q???G ?h^?
S?[????#?? ??m?????>
???|`..?0???
\#??p-??-???
?K???
0?D"??I!ZG,
z?,??? ????j??,????4;o??????tt??
???N
.??B?
Fb\??????*}W
??&$T???=
??d?n
W?????L???PP??k`_?C??^?\?1?N?]??'E?k5?We5I???+O:?D
??^X
???$??p?
?????j??Sh????5f??T?J??1Bs?1B???c
?????z
??1?s!??
X???a?stM???w???Tn?4
V????
??T?5Ay?:<
?Z??J??o
?@d?G ??3?L
??j?hd?
?z?F;?
#??d???
?M)?t
??K$?
|??h? k?l??
??F?)?PHb:;?
????
?,??
l???O
??~o??S?,?
??????
?????6]"??
"h???B?u???%????
??b???G
&???]?
Ms}??@?o
%?????1
wcxIk??
???X?:??!?
?R?,??$$\f??
???????k
z??YB???nO???4?(g
?FG?)"
????Li
?? #
?????
?2?F_{.q?o
yh?I?4?/U?*?O?
e??b?y5<?\?|:UZwn???m
N??u?
S?l?
??-A/N?hz??"3/??,?
????pW?3
?z? L<?l?
u?m?3
?~??+?3
?3?N Z???V a????
?/>`???,>
??42????
c??-?g?T
.Xh???
?)??0?*w0?
`?=.X3??3
z?p???3
????f\????
~???
???T?3
?@>??*4
??`???Og??`81?3
?????!????M???1
"? d?C?
?????Z??X???;ryu??
M>@&??P?/[o???R
(????=???I?Y?
1;NM
??^??r|-?1?
T?h?S???+?N0???? ??,?_^???
??N?*
=????}?O?c&3A?L6??B"?
???????]`B-??
??s?[?E???Zz
Z??:$?
??~??v?
?????rf
c?u?????H}w? ???
??h????
?H????O?aK
tn?~?
*?????????o?QpH?Z
<?%??4
,???:??
$]Mw??? ???
?4Mv
??s)2}??
?N?=?q??T ?I??v?
????*%n4Dy?o
`L<~o??%
1?????
??W?
i?????????z
?&Z?
?????V
?U|i?C)x?`??d?b:?d?O??
 ??????
?W?g??????Kw???
??????*| ?????j?.??????
E?!??
????BD??
DMSX^b?????
xme???/l???????
g??PpV!
??3???A???
Y?????
?????<?????
v?OI?g??>?
???(
??y??/
?????
??!8?
?????
JO\g^/?]
?,'???
?3?Ol??????
??????l
?d?E.k?;??
????;?z
l?0&?1?d?E?l`??
????d?E A?
BL?M???
b??F????
?>b???
?b???P?
?????z??#?????
????
?l???=? ??
1???
?Z???
l???+
DbA???
V? ??I??(?
?0??>???
?5?t?d?E9?V????
?d?E?
V*??p??#q?5Y
]B5?????
?.&[w-?
?0}?6?o?.<?M?y??
^?d?
z????
??S?C?`?????
;"6H(?m?GL`|
?8??8p?????d?E(??r?+?B~??
?d?E?????l?o?x
y?"#?
???$???8?~(??@
R*]Z
:?A?Ut??hV???Y?
?L??,e"????z?
?Lc?T???
5??h??B???b?bs?
????J?
:??o?l?8??:
?v?u8
+=??+>`"
KG?? ??'H;?B??X?Q?
+=???b?ZlP?
???1P???a
?NIJ-V?,g?'H;R???
+=?*?g?
???'H;
+=????f???
???'H;0:f??lr????
g??? A?F
?????
??rk?????'H;xK?JFJ
="?????
.U??
EB?'H;?2zd:W?s*P
 +=?o????
?uTL??e?'H;"+=??????
23???'H;}?uj
???l)
@a2x-??-????
??Q???S.
Z?gI??M??????O??&&????f???????c??
??????@?8W
??XJ?N?`
??Q?u??'H;(+=???
???i??????????'H;
~??{?s???cg-+=?$?
??'H;.+=?`??tb?a
?(???'H;4?
Y??-G
Jh??
?~??D?)????
?OG???-}?T???w1
??,?
?w ?
?<?s?w1
?.??+??
?J&C?x??????Ax1
?.[?
?{? "
?*??
??z1
`<?j
?^????@????W~@$m6I]?????{1
j???U?
????|1
MdR?N%??????M?f??B1
h{?????|1
?Fy?+??rV?
?A5?
???">?Z"?
?R???sg
??!0??
?????Q?|??
????
"?/:??
0???e?????1
?(_???1
?#??zVW?
?5??N?!?j?????
??????1
????B
c}???L???u?@?
^???????1
~$???Y?CL?
?x?&??m (k.?OI\_X?.?&5?1
?=?1
?n8???
?e?????'<A?r?1
??8?w2????1
?&@?
~ y\B?^i?b8??1
??Z1
~?y????n?1
2??x??k?'?G??$I???x???f4f????fq?:
P??????@?
??f>????;?M???C??????
?[???TX8?
2D?t?
??l?^q?"??g
??lL??mJ??_
??tZ??VU
?J?6?????b
%?t??
??ld?
??o?????1???|
??+S??3???W?d?o?[?
v????n#??l??}w??6??#C??En
.?`b????o?%??l?
??j?
??.?????\`?}??.?X"2
??&?)O
G????x?????@?
K?&??
?1e?
??@!??????
i=?p??~#)
&????
;w8??
q+??OzRu4l?
??)????4?&ph?'?#
?"?g??>
?????
??B????J7^???????8K??'`??oQV0u???$?
?<???9m?
??f#?.?~????
 |BbDR?0l
?5??
?6??
?-?Jq????p_f?'
i??yAQ
?G??f?mR??'zq?k B?k?8?H?0
?kp?[
?kr???#A??~???h??.zd????t?yAV?
????m??J
CUYbn.?.=?O??;???
 @L?}?(Y?+N?????????#?V
???;#3?
F????d?.??
????4???f?,?
e_??
 Z?rD]??#??
????
+$>??vV_??^
.??r????lu??b??j!
??kr.??????1
CSE???????
?%B@
Af??4
(?3??<??<??g?u)?j?
puK?G?3???I_
|?i?n???U?
r?r,?t
?????!????M??
`???
?????^??G????
????q?
?p?????>
`FX??
?]5?.
?B??\?
4??/?A{V
????4?????????[?{
??r?)
1????R??=I
?aH?5???
?j??
0?=?%X?M_???p?
?-???0??7[?J?<bQ+??Y????f
????X05??^??
????A?Y1~?-?Z ?
?l,?(
&]??T
:?*?D
?9<??n<??@?2*L???Rk
?p?hI?"?
?4x??
???N'
vE5{8??j?????g
??AJ
???T????s?%???93
T'?$&o?J
??)h???E???u?4?_???v
???|???Y?[?L?????
?D??5v?h?Agn?)f
?X??_B
E2zp>?
???%?
s.e%I
?%xr;
?#P?t@?
???B??
5o????MZ?
l?&?_??wK??n??}??Z]g?
???mwAS????[????G?P??M0
j?1X$s>s?x
Z?b$?J????
?????????$s e?7?&?
????R?d/n???
RfJr3
??3?tLBI??
.??Pk?T?d/?
"s??
??T??T?d/?3
??g?{?V?O
wsW?d/?
+QR??x???p???fF??
6?G>i?KR
X?d/
?\??b????=s0Z?d/
?<?.??
[???? >?????\?d/0?I^?
???6??~l??>
]?d/?0?G?!
????
?9ol
A?X??d!`?^
\?????ei?X?)??^?8?3-P??;y#N
c`M?
N?y?+
?c?d/d?d/??
?@??ya?S??.oa??Z?
??e??D??p
(]??
???WbO??n"O??`??j<]
h?d/*??.U?r???2[i?d/?
??? ??*??????
__cxa_finalize
__cxa_atexit
__register_atfork
zygisk_module_entry
_ZN6zygisk8internal10entry_implI8MyModuleEEvPNS0_9api_tableEP7_JNIEnv
_Znwm
memset
_ZN8MyModuleC2Ev
_ZN6zygisk8internal10module_abiC2EPNS_10ModuleBaseE
_ZTV8MyModule
_ZN6zygisk10ModuleBaseC2Ev
_ZZN6zygisk8internal10module_abiC1EPNS_10ModuleBaseEENKUlT_T0_E_cvPFDaS4_S5_EIS3_PNS_17AppSpecializeArgsEEEv
_ZZN6zygisk8internal10module_abiC1EPNS_10ModuleBaseEENKUlT_T0_E0_cvPFDaS4_S5_EIS3_PKNS_17AppSpecializeArgsEEEv
_ZZN6zygisk8internal10module_abiC1EPNS_10ModuleBaseEENKUlT_T0_E1_cvPFDaS4_S5_EIS3_PNS_20ServerSpecializeArgsEEEv
_ZZN6zygisk8internal10module_abiC1EPNS_10ModuleBaseEENKUlT_T0_E2_cvPFDaS4_S5_EIS3_PKNS_20ServerSpecializeArgsEEEv
__stack_chk_fail
_ZTVN6zygisk10ModuleBaseE
_ZN8MyModule6onLoadEPN6zygisk3ApiEP7_JNIEnv
_ZN8MyModule16preAppSpecializeEPN6zygisk17AppSpecializeArgsE
_ZN7_JNIEnv17GetStringUTFCharsEP8_jstringPh
_ZN8MyModule13preSpecializeEPKcS1_
_ZN7_JNIEnv21ReleaseStringUTFCharsEP8_jstringPKc
_ZN8MyModule17postAppSpecializeEPKN6zygisk17AppSpecializeArgsE
_Z12hack_preparePKcPvm
_ZNSt6__ndk16thread6detachEv
_ZNSt6__ndk16threadD1Ev
_ZN6zygisk10ModuleBase19preServerSpecializeEPNS_20ServerSpecializeArgsE
_ZN6zygisk10ModuleBase20postServerSpecializeEPKNS_20ServerSpecializeArgsE
_ZN6zygisk10ModuleBase6onLoadEPNS_3ApiEP7_JNIEnv
_ZN6zygisk10ModuleBase16preAppSpecializeEPNS_17AppSpecializeArgsE
_ZN6zygisk10ModuleBase17postAppSpecializeEPKNS_17AppSpecializeArgsE
strcmp
__android_log_print
__strlen_chk
_Znam
__strcpy_chk
_ZN6zygisk3Api9setOptionENS_6OptionE
_ZNSt6__ndk115__thread_structC1Ev
_ZNSt6__ndk110unique_ptrINS_15__thread_structENS_14default_deleteIS1_EEEC2ILb1EvEEPS1_
_ZNSt6__ndk15tupleIJNS_10unique_ptrINS_15__thread_structENS_14default_deleteIS2_EEEEPFvPKcPvmEPcS8_mEEC2IJS5_SA_SB_S8_mELb0ELb0EEEDpOT_
_ZNSt6__ndk110unique_ptrINS_5tupleIJNS0_INS_15__thread_structENS_14default_deleteIS2_EEEEPFvPKcPvmEPcS8_mEEENS3_ISC_EEEC2ILb1EvEEPSC_
_ZNSt6__ndk120__throw_system_errorEiPKc
_ZNSt6__ndk117__compressed_pairIPNS_15__thread_structENS_14default_deleteIS1_EEEC2IRS2_NS_18__default_init_tagEEEOT_OT0_
_ZNSt6__ndk112__tuple_implINS_15__tuple_indicesIJLm0ELm1ELm2ELm3ELm4EEEEJNS_10unique_ptrINS_15__thread_structENS_14default_deleteIS4_EEEEPFvPKcPvmEPcSA_mEEC2IJLm0ELm1ELm2ELm3ELm4EEJS7_SC_SD_SA_mEJEJEJS7_SC_SD_SA_mEEENS1_IJXspT_EEEENS_13__tuple_typesIJDpT0_EEENS1_IJXspT1_EEEENSH_IJDpT2_EEEDpOT3_
_ZNSt6__ndk117__compressed_pairIPNS_5tupleIJNS_10unique_ptrINS_15__thread_structENS_14default_deleteIS3_EEEEPFvPKcPvmEPcS9_mEEENS4_ISD_EEEC2IRSE_NS_18__default_init_tagEEEOT_OT0_
pthread_create
_ZNSt6__ndk119__thread_local_dataEv
_ZNSt6__ndk121__thread_specific_ptrINS_15__thread_structEE11set_pointerEPS1_
_ZNSt6__ndk122__compressed_pair_elemIPNS_15__thread_structELi0ELb0EEC2IRS2_vEEOT_
_ZNSt6__ndk112__tuple_leafILm0ENS_10unique_ptrINS_15__thread_structENS_14default_deleteIS2_EEEELb0EEC2IS5_vEEOT_
_ZNSt6__ndk112__tuple_leafILm1EPFvPKcPvmELb0EEC2IS5_vEEOT_
_ZNSt6__ndk112__tuple_leafILm2EPcLb0EEC2IS1_vEEOT_
_ZNSt6__ndk112__tuple_leafILm3EPvLb0EEC2IS1_vEEOT_
_ZNSt6__ndk112__tuple_leafILm4EmLb0EEC2ImvEEOT_
_ZNSt6__ndk117__compressed_pairIPNS_15__thread_structENS_14default_deleteIS1_EEEC2IS2_S4_EEOT_OT0_
_ZNSt6__ndk122__compressed_pair_elemIPNS_15__thread_structELi0ELb0EEC2IS2_vEEOT_
_ZNSt6__ndk122__compressed_pair_elemINS_14default_deleteINS_15__thread_structEEELi1ELb1EEC2IS3_vEEOT_
_ZNSt6__ndk122__compressed_pair_elemIPNS_5tupleIJNS_10unique_ptrINS_15__thread_structENS_14default_deleteIS3_EEEEPFvPKcPvmEPcS9_mEEELi0ELb0EEC2IRSE_vEEOT_
pthread_setspecific
_ZNSt6__ndk15tupleIJNS_10unique_ptrINS_15__thread_structENS_14default_deleteIS2_EEEEPFvPKcPvmEPcS8_mEED2Ev
_ZdlPv
_ZNSt6__ndk112__tuple_implINS_15__tuple_indicesIJLm0ELm1ELm2ELm3ELm4EEEEJNS_10unique_ptrINS_15__thread_structENS_14default_deleteIS4_EEEEPFvPKcPvmEPcSA_mEED2Ev
_ZNSt6__ndk112__tuple_leafILm0ENS_10unique_ptrINS_15__thread_structENS_14default_deleteIS2_EEEELb0EED2Ev
_ZNSt6__ndk115__thread_structD1Ev
_ZZN6zygisk8internal10module_abiC1EPNS_10ModuleBaseEENUlT_T0_E_8__invokeIS3_PNS_17AppSpecializeArgsEEEDaS4_S5_
_ZZN6zygisk8internal10module_abiC1EPNS_10ModuleBaseEENUlT_T0_E0_8__invokeIS3_PKNS_17AppSpecializeArgsEEEDaS4_S5_
_ZZN6zygisk8internal10module_abiC1EPNS_10ModuleBaseEENUlT_T0_E1_8__invokeIS3_PNS_20ServerSpecializeArgsEEEDaS4_S5_
_ZZN6zygisk8internal10module_abiC1EPNS_10ModuleBaseEENUlT_T0_E2_8__invokeIS3_PKNS_20ServerSpecializeArgsEEEDaS4_S5_
_ZZN6zygisk8internal10module_abiC1EPNS_10ModuleBaseEENKUlT_T0_E_clIS3_PNS_17AppSpecializeArgsEEEDaS4_S5_
_ZZN6zygisk8internal10module_abiC1EPNS_10ModuleBaseEENKUlT_T0_E0_clIS3_PKNS_17AppSpecializeArgsEEEDaS4_S5_
_ZZN6zygisk8internal10module_abiC1EPNS_10ModuleBaseEENKUlT_T0_E1_clIS3_PNS_20ServerSpecializeArgsEEEDaS4_S5_
_ZZN6zygisk8internal10module_abiC1EPNS_10ModuleBaseEENKUlT_T0_E2_clIS3_PKNS_20ServerSpecializeArgsEEEDaS4_S5_
_Z10hack_startPKc
xdl_open
_Z15il2cpp_api_initPv
_Z11il2cpp_dumpPKc
sleep
gettid
_Z9GetLibDirP7_JavaVM
_ZN7_JavaVM19AttachCurrentThreadEPP7_JNIEnvPv
_ZN7_JNIEnv9FindClassEPKc
_ZN7_JNIEnv17GetStaticMethodIDEP7_jclassPKcS3_
_ZN7_JNIEnv22CallStaticObjectMethodEP7_jclassP10_jmethodIDz
_ZN7_JNIEnv14GetObjectClassEP8_jobject
_ZN7_JNIEnv11GetMethodIDEP7_jclassPKcS3_
_ZN7_JNIEnv16CallObjectMethodEP8_jobjectP10_jmethodIDz
_ZN7_JNIEnv10GetFieldIDEP7_jclassPKcS3_
_ZN7_JNIEnv14GetObjectFieldEP8_jobjectP9_jfieldID
_ZNSt6__ndk112basic_stringIcNS_11char_traitsIcEENS_9allocatorIcEEEC2IDnEEPKc
_ZNSt6__ndk112basic_stringIcNS_11char_traitsIcEENS_9allocatorIcEEED1Ev
_ZNSt6__ndk117__compressed_pairINS_12basic_stringIcNS_11char_traitsIcEENS_9allocatorIcEEE5__repES5_EC2INS_18__default_init_tagESA_EEOT_OT0_
_ZNSt6__ndk111char_traitsIcE6lengthEPKc
_ZNSt6__ndk112basic_stringIcNS_11char_traitsIcEENS_9allocatorIcEEE6__initEPKcm
_Z16NativeBridgeLoadPKciPvm
dlopen
dlsym
munmap
syscall
ftruncate
mmap
__memcpy_chk
close
__system_property_get
__vsnprintf_chk
atoi
JNI_OnLoad
_ZNSt6__ndk15tupleIJNS_10unique_ptrINS_15__thread_structENS_14default_deleteIS2_EEEEPFvPKcES7_EEC2IJS5_S9_S7_ELb0ELb0EEEDpOT_
_ZNSt6__ndk110unique_ptrINS_5tupleIJNS0_INS_15__thread_structENS_14default_deleteIS2_EEEEPFvPKcES7_EEENS3_ISA_EEEC2ILb1EvEEPSA_
strlen
_ZNSt6__ndk118__search_substringIcNS_11char_traitsIcEEEEPKT_S5_S5_S5_S5_
_ZNSt6__ndk111char_traitsIcE4findEPKcmRS2_
_ZNSt6__ndk111char_traitsIcE7compareEPKcS3_m
_ZNSt6__ndk111char_traitsIcE11to_int_typeEc
memchr
memcmp
_ZNSt6__ndk112__tuple_implINS_15__tuple_indicesIJLm0ELm1ELm2EEEEJNS_10unique_ptrINS_15__thread_structENS_14default_deleteIS4_EEEEPFvPKcES9_EEC2IJLm0ELm1ELm2EEJS7_SB_S9_EJEJEJS7_SB_S9_EEENS1_IJXspT_EEEENS_13__tuple_typesIJDpT0_EEENS1_IJXspT1_EEEENSF_IJDpT2_EEEDpOT3_
_ZNSt6__ndk117__compressed_pairIPNS_5tupleIJNS_10unique_ptrINS_15__thread_structENS_14default_deleteIS3_EEEEPFvPKcES8_EEENS4_ISB_EEEC2IRSC_NS_18__default_init_tagEEEOT_OT0_
_ZNSt6__ndk112__tuple_leafILm1EPFvPKcELb0EEC2IS4_vEEOT_
_ZNSt6__ndk112__tuple_leafILm2EPKcLb0EEC2IS2_vEEOT_
_ZNSt6__ndk122__compressed_pair_elemIPNS_5tupleIJNS_10unique_ptrINS_15__thread_structENS_14default_deleteIS3_EEEEPFvPKcES8_EEELi0ELb0EEC2IRSC_vEEOT_
_ZNSt6__ndk15tupleIJNS_10unique_ptrINS_15__thread_structENS_14default_deleteIS2_EEEEPFvPKcES7_EED2Ev
_ZNSt6__ndk112__tuple_implINS_15__tuple_indicesIJLm0ELm1ELm2EEEEJNS_10unique_ptrINS_15__thread_structENS_14default_deleteIS4_EEEEPFvPKcES9_EED2Ev
_Z15init_il2cpp_apiPv
xdl_sym
il2cpp_init
il2cpp_init_utf16
il2cpp_shutdown
il2cpp_set_config_dir
il2cpp_set_data_dir
il2cpp_set_temp_dir
il2cpp_set_commandline_arguments
il2cpp_set_commandline_arguments_utf16
il2cpp_set_config_utf16
il2cpp_set_config
il2cpp_set_memory_callbacks
il2cpp_get_corlib
il2cpp_add_internal_call
il2cpp_resolve_icall
il2cpp_alloc
il2cpp_free
il2cpp_array_class_get
il2cpp_array_length
il2cpp_array_get_byte_length
il2cpp_array_new
il2cpp_array_new_specific
il2cpp_array_new_full
il2cpp_bounded_array_class_get
il2cpp_array_element_size
il2cpp_assembly_get_image
il2cpp_class_for_each
il2cpp_class_enum_basetype
il2cpp_class_is_generic
il2cpp_class_is_inflated
il2cpp_class_is_assignable_from
il2cpp_class_is_subclass_of
il2cpp_class_has_parent
il2cpp_class_from_il2cpp_type
il2cpp_class_from_name
il2cpp_class_from_system_type
il2cpp_class_get_element_class
il2cpp_class_get_events
il2cpp_class_get_fields
il2cpp_class_get_nested_types
il2cpp_class_get_interfaces
il2cpp_class_get_properties
il2cpp_class_get_property_from_name
il2cpp_class_get_field_from_name
il2cpp_class_get_methods
il2cpp_class_get_method_from_name
il2cpp_class_get_name
il2cpp_type_get_name_chunked
il2cpp_class_get_namespace
il2cpp_class_get_parent
il2cpp_class_get_declaring_type
il2cpp_class_instance_size
il2cpp_class_num_fields
il2cpp_class_is_valuetype
il2cpp_class_value_size
il2cpp_class_is_blittable
il2cpp_class_get_flags
il2cpp_class_is_abstract
il2cpp_class_is_interface
il2cpp_class_array_element_size
il2cpp_class_from_type
il2cpp_class_get_type
il2cpp_class_get_type_token
il2cpp_class_has_attribute
il2cpp_class_has_references
il2cpp_class_is_enum
il2cpp_class_get_image
il2cpp_class_get_assemblyname
il2cpp_class_get_rank
il2cpp_class_get_data_size
il2cpp_class_get_static_field_data
il2cpp_class_get_bitmap_size
il2cpp_class_get_bitmap
il2cpp_stats_dump_to_file
il2cpp_stats_get_value
il2cpp_domain_get
il2cpp_domain_assembly_open
il2cpp_domain_get_assemblies
il2cpp_raise_exception
il2cpp_exception_from_name_msg
il2cpp_get_exception_argument_null
il2cpp_format_exception
il2cpp_format_stack_trace
il2cpp_unhandled_exception
il2cpp_native_stack_trace
il2cpp_field_get_flags
il2cpp_field_get_name
il2cpp_field_get_parent
il2cpp_field_get_offset
il2cpp_field_get_type
il2cpp_field_get_value
il2cpp_field_get_value_object
il2cpp_field_has_attribute
il2cpp_field_set_value
il2cpp_field_static_get_value
il2cpp_field_static_set_value
il2cpp_field_set_value_object
il2cpp_field_is_literal
il2cpp_gc_collect
il2cpp_gc_collect_a_little
il2cpp_gc_start_incremental_collection
il2cpp_gc_disable
il2cpp_gc_enable
il2cpp_gc_is_disabled
il2cpp_gc_set_mode
il2cpp_gc_get_max_time_slice_ns
il2cpp_gc_set_max_time_slice_ns
il2cpp_gc_is_incremental
il2cpp_gc_get_used_size
il2cpp_gc_get_heap_size
il2cpp_gc_wbarrier_set_field
il2cpp_gc_has_strict_wbarriers
il2cpp_gc_set_external_allocation_tracker
il2cpp_gc_set_external_wbarrier_tracker
il2cpp_gc_foreach_heap
il2cpp_stop_gc_world
il2cpp_start_gc_world
il2cpp_gc_alloc_fixed
il2cpp_gc_free_fixed
il2cpp_gchandle_new
il2cpp_gchandle_new_weakref
il2cpp_gchandle_get_target
il2cpp_gchandle_free
il2cpp_gchandle_foreach_get_target
il2cpp_object_header_size
il2cpp_array_object_header_size
il2cpp_offset_of_array_length_in_array_object_header
il2cpp_offset_of_array_bounds_in_array_object_header
il2cpp_allocation_granularity
il2cpp_unity_liveness_allocate_struct
il2cpp_unity_liveness_calculation_from_root
il2cpp_unity_liveness_calculation_from_statics
il2cpp_unity_liveness_finalize
il2cpp_unity_liveness_free_struct
il2cpp_method_get_return_type
il2cpp_method_get_declaring_type
il2cpp_method_get_name
il2cpp_method_get_from_reflection
il2cpp_method_get_object
il2cpp_method_is_generic
il2cpp_method_is_inflated
il2cpp_method_is_instance
il2cpp_method_get_param_count
il2cpp_method_get_param
il2cpp_method_get_class
il2cpp_method_has_attribute
il2cpp_method_get_flags
il2cpp_method_get_token
il2cpp_method_get_param_name
il2cpp_property_get_flags
il2cpp_property_get_get_method
il2cpp_property_get_set_method
il2cpp_property_get_name
il2cpp_property_get_parent
il2cpp_object_get_class
il2cpp_object_get_size
il2cpp_object_get_virtual_method
il2cpp_object_new
il2cpp_object_unbox
il2cpp_value_box
il2cpp_monitor_enter
il2cpp_monitor_try_enter
il2cpp_monitor_exit
il2cpp_monitor_pulse
il2cpp_monitor_pulse_all
il2cpp_monitor_wait
il2cpp_monitor_try_wait
il2cpp_runtime_invoke
il2cpp_runtime_invoke_convert_args
il2cpp_runtime_class_init
il2cpp_runtime_object_init
il2cpp_runtime_object_init_exception
il2cpp_runtime_unhandled_exception_policy_set
il2cpp_string_length
il2cpp_string_chars
il2cpp_string_new
il2cpp_string_new_len
il2cpp_string_new_utf16
il2cpp_string_new_wrapper
il2cpp_string_intern
il2cpp_string_is_interned
il2cpp_thread_current
il2cpp_thread_attach
il2cpp_thread_detach
il2cpp_thread_get_all_attached_threads
il2cpp_is_vm_thread
il2cpp_current_thread_walk_frame_stack
il2cpp_thread_walk_frame_stack
il2cpp_current_thread_get_top_frame
il2cpp_thread_get_top_frame
il2cpp_current_thread_get_frame_at
il2cpp_thread_get_frame_at
il2cpp_current_thread_get_stack_depth
il2cpp_thread_get_stack_depth
il2cpp_override_stack_backtrace
il2cpp_type_get_object
il2cpp_type_get_type
il2cpp_type_get_class_or_element_class
il2cpp_type_get_name
il2cpp_type_is_byref
il2cpp_type_get_attrs
il2cpp_type_equals
il2cpp_type_get_assembly_qualified_name
il2cpp_type_is_static
il2cpp_type_is_pointer_type
il2cpp_image_get_assembly
il2cpp_image_get_name
il2cpp_image_get_filename
il2cpp_image_get_entry_point
il2cpp_image_get_class_count
il2cpp_image_get_class
il2cpp_capture_memory_snapshot
il2cpp_free_captured_memory_snapshot
il2cpp_set_find_plugin_callback
il2cpp_register_log_callback
il2cpp_debugger_set_agent_options
il2cpp_is_debugger_attached
il2cpp_register_debugger_agent_transport
il2cpp_debug_get_method_info
il2cpp_unity_install_unitytls_interface
il2cpp_custom_attrs_from_class
il2cpp_custom_attrs_from_method
il2cpp_custom_attrs_get_attr
il2cpp_custom_attrs_has_attr
il2cpp_custom_attrs_construct
il2cpp_custom_attrs_free
il2cpp_class_set_userdata
il2cpp_class_get_userdata_offset
il2cpp_set_default_thread_affinity
_Z19get_method_modifierj
_ZNSt6__ndk1lsINS_11char_traitsIcEEEERNS_13basic_ostreamIcT_EES6_PKc
_ZNSt6__ndk118basic_stringstreamIcNS_11char_traitsIcEENS_9allocatorIcEEED1Ev
_ZTVNSt6__ndk118basic_stringstreamIcNS_11char_traitsIcEENS_9allocatorIcEEEE
_ZTTNSt6__ndk118basic_stringstreamIcNS_11char_traitsIcEENS_9allocatorIcEEEE
_ZNSt6__ndk124__put_character_sequenceIcNS_11char_traitsIcEEEERNS_13basic_ostreamIT_T0_EES7_PKS4_m
_ZNKSt6__ndk115basic_stringbufIcNS_11char_traitsIcEENS_9allocatorIcEEE3strEv
_ZNSt6__ndk118basic_stringstreamIcNS_11char_traitsIcEENS_9allocatorIcEEED2Ev
_ZNSt6__ndk19basic_iosIcNS_11char_traitsIcEEED2Ev
_Z21_il2cpp_type_is_byrefPK10Il2CppType
_Z11dump_methodP11Il2CppClass
_ZNSt6__ndk113basic_ostreamIcNS_11char_traitsIcEEElsEm
_ZNSt6__ndk1lsIcNS_11char_traitsIcEENS_9allocatorIcEEEERNS_13basic_ostreamIT_T0_EES9_RKNS_12basic_stringIS6_S7_T1_EE
_ZNSt6__ndk113basic_ostreamIcNS_11char_traitsIcEEE6sentryC1ERS3_
_ZNSt6__ndk113basic_ostreamIcNS_11char_traitsIcEEE6sentryD1Ev
_Z13dump_propertyP11Il2CppClass
_Z10dump_fieldP11Il2CppClass
_Z9dump_typePK10Il2CppType
_ZNSt6__ndk16vectorINS_12basic_stringIcNS_11char_traitsIcEENS_9allocatorIcEEEENS4_IS6_EEE12emplace_backIJPKcEEERS6_DpOT_
_ZNSt6__ndk16vectorINS_12basic_stringIcNS_11char_traitsIcEENS_9allocatorIcEEEENS4_IS6_EEE22__construct_one_at_endIJPKcEEEvDpOT_
_ZNSt6__ndk16vectorINS_12basic_stringIcNS_11char_traitsIcEENS_9allocatorIcEEEENS4_IS6_EEE24__emplace_back_slow_pathIJPKcEEEvDpOT_
_ZNSt6__ndk113__vector_baseINS_12basic_stringIcNS_11char_traitsIcEENS_9allocatorIcEEEENS4_IS6_EEED2Ev
_Z11findLibraryPKc
fopen
perror
__fgets_chk
fgets
strstr
strtoul
fclose
__vsprintf_chk
dladdr
_ZNSt6__ndk113basic_ostreamIcNS_11char_traitsIcEEElsEi
_ZNKSt6__ndk112basic_stringIcNS_11char_traitsIcEENS_9allocatorIcEEE5rfindEcm
_ZNSt6__ndk112basic_stringIcNS_11char_traitsIcEENS_9allocatorIcEEE6appendEPKc
_ZNSt6__ndk112basic_stringIcNS_11char_traitsIcEENS_9allocatorIcEEEC1ERKS5_
_ZNSt6__ndk114basic_ofstreamIcNS_11char_traitsIcEEED1Ev
_ZNSt6__ndk16vectorINS_12basic_stringIcNS_11char_traitsIcEENS_9allocatorIcEEEENS4_IS6_EEE22__construct_one_at_endIJRKS6_EEEvDpOT_
_ZNSt6__ndk16vectorINS_12basic_stringIcNS_11char_traitsIcEENS_9allocatorIcEEEENS4_IS6_EEE21__push_back_slow_pathIRKS6_EEvOT_
_ZNSt6__ndk112basic_stringIcNS_11char_traitsIcEENS_9allocatorIcEEEC1ERKS5_mmRKS4_
_ZTVNSt6__ndk114basic_ofstreamIcNS_11char_traitsIcEEEE
_ZTTNSt6__ndk114basic_ofstreamIcNS_11char_traitsIcEEEE
_ZNSt6__ndk113basic_filebufIcNS_11char_traitsIcEEEC2Ev
_ZNSt6__ndk113basic_filebufIcNS_11char_traitsIcEEE5closeEv
_ZNSt6__ndk114basic_ofstreamIcNS_11char_traitsIcEEED2Ev
_ZNSt6__ndk115basic_stringbufIcNS_11char_traitsIcEENS_9allocatorIcEEED2Ev
_ZNSt6__ndk114basic_iostreamIcNS_11char_traitsIcEEED2Ev
_ZThn16_NSt6__ndk118basic_stringstreamIcNS_11char_traitsIcEENS_9allocatorIcEEED1Ev
_ZTv0_n24_NSt6__ndk118basic_stringstreamIcNS_11char_traitsIcEENS_9allocatorIcEEED1Ev
_ZNSt6__ndk118basic_stringstreamIcNS_11char_traitsIcEENS_9allocatorIcEEED0Ev
_ZThn16_NSt6__ndk118basic_stringstreamIcNS_11char_traitsIcEENS_9allocatorIcEEED0Ev
_ZTv0_n24_NSt6__ndk118basic_stringstreamIcNS_11char_traitsIcEENS_9allocatorIcEEED0Ev
_ZTVNSt6__ndk115basic_stringbufIcNS_11char_traitsIcEENS_9allocatorIcEEEE
_ZNSt6__ndk115basic_streambufIcNS_11char_traitsIcEEED2Ev
_ZNSt6__ndk115basic_stringbufIcNS_11char_traitsIcEENS_9allocatorIcEEED0Ev
_ZNSt6__ndk115basic_stringbufIcNS_11char_traitsIcEENS_9allocatorIcEEE7seekoffExNS_8ios_base7seekdirEj
_ZNSt6__ndk115basic_stringbufIcNS_11char_traitsIcEENS_9allocatorIcEEE9underflowEv
_ZNSt6__ndk111char_traitsIcE3eofEv
_ZNSt6__ndk115basic_stringbufIcNS_11char_traitsIcEENS_9allocatorIcEEE9pbackfailEi
_ZNSt6__ndk111char_traitsIcE11eq_int_typeEii
_ZNSt6__ndk111char_traitsIcE7not_eofEi
_ZNSt6__ndk111char_traitsIcE12to_char_typeEi
_ZNSt6__ndk111char_traitsIcE2eqEcc
_ZNSt6__ndk115basic_stringbufIcNS_11char_traitsIcEENS_9allocatorIcEEE8overflowEi
_ZNSt6__ndk112basic_stringIcNS_11char_traitsIcEENS_9allocatorIcEEE9push_backEc
_ZNSt6__ndk112basic_stringIcNS_11char_traitsIcEENS_9allocatorIcEEE6resizeEmc
_ZNSt6__ndk113basic_filebufIcNS_11char_traitsIcEEED2Ev
_ZNSt6__ndk113basic_ostreamIcNS_11char_traitsIcEEED2Ev
_ZTv0_n24_NSt6__ndk114basic_ofstreamIcNS_11char_traitsIcEEED1Ev
_ZNSt6__ndk114basic_ofstreamIcNS_11char_traitsIcEEED0Ev
_ZTv0_n24_NSt6__ndk114basic_ofstreamIcNS_11char_traitsIcEEED0Ev
_ZTVNSt6__ndk113basic_filebufIcNS_11char_traitsIcEEEE
_ZdaPv
_ZNSt6__ndk110unique_ptrI7__sFILEPFiPS1_EEC2ILb1EvEES2_NS_16__dependent_typeINS_27__unique_ptr_deleter_sfinaeIS4_EEXT_EE20__good_rval_ref_typeE
_ZNSt6__ndk113basic_filebufIcNS_11char_traitsIcEEED0Ev
_ZNSt6__ndk113basic_filebufIcNS_11char_traitsIcEEE5imbueERKNS_6localeE
_ZNSt6__ndk113basic_filebufIcNS_11char_traitsIcEEE6setbufEPcl
_ZNSt6__ndk113basic_filebufIcNS_11char_traitsIcEEE7seekoffExNS_8ios_base7seekdirEj
fseeko
ftello
_ZNSt6__ndk113basic_filebufIcNS_11char_traitsIcEEE7seekposENS_4fposI9mbstate_tEEj
_ZNSt6__ndk113basic_filebufIcNS_11char_traitsIcEEE4syncEv
fwrite
fflush
_ZNSt6__ndk113basic_filebufIcNS_11char_traitsIcEEE9underflowEv
_ZNSt6__ndk113basic_filebufIcNS_11char_traitsIcEEE11__read_modeEv
__memmove_chk
fread
_ZNSt6__ndk113basic_filebufIcNS_11char_traitsIcEEE9pbackfailEi
_ZNSt6__ndk113basic_filebufIcNS_11char_traitsIcEEE8overflowEi
_ZNSt6__ndk113basic_filebufIcNS_11char_traitsIcEEE12__write_modeEv
_ZNSt6__ndk117__compressed_pairIP7__sFILEPFiS2_EEC2IRS2_S4_EEOT_OT0_
_ZNSt6__ndk122__compressed_pair_elemIP7__sFILELi0ELb0EEC2IRS2_vEEOT_
_ZNSt6__ndk122__compressed_pair_elemIPFiP7__sFILEELi1ELb0EEC2IS4_vEEOT_
_ZNSt6__ndk17codecvtIcc9mbstate_tE2idE
_ZNKSt6__ndk16locale9use_facetERNS0_2idE
abort
_ZTVNSt6__ndk19basic_iosIcNS_11char_traitsIcEEEE
_ZNSt6__ndk115basic_streambufIcNS_11char_traitsIcEEEC2Ev
_ZTVNSt6__ndk18ios_baseE
_ZNSt6__ndk18ios_base4initEPv
_ZNSt6__ndk112basic_stringIcNS_11char_traitsIcEENS_9allocatorIcEEE6__initEmc
_ZNKSt6__ndk18ios_base6getlocEv
_ZNSt6__ndk16localeD1Ev
_ZNSt6__ndk15ctypeIcE2idE
_ZNSt6__ndk18ios_base5clearEj
_ZNSt6__ndk112basic_stringIcNS_11char_traitsIcEENS_9allocatorIcEEEC2IPcvEET_S8_RKS4_
_ZNSt6__ndk117__compressed_pairINS_12basic_stringIcNS_11char_traitsIcEENS_9allocatorIcEEE5__repES5_EC2INS_18__default_init_tagERKS5_EEOT_OT0_
_ZNSt6__ndk112basic_stringIcNS_11char_traitsIcEENS_9allocatorIcEEE6__initIPcEENS_9_MetaBaseIXsr27__is_cpp17_forward_iteratorIT_EE5valueEE13_EnableIfImplIvEES9_S9_
_ZNSt6__ndk122__compressed_pair_elemINS_9allocatorIcEELi1ELb1EEC2IRKS2_vEEOT_
_ZNKSt6__ndk121__basic_string_commonILb1EE20__throw_length_errorEv
_ZNSt6__ndk111char_traitsIcE6assignERcRKc
_ZNSt6__ndk112basic_stringIcNS_11char_traitsIcEENS_9allocatorIcEEE10__align_itILm16EEEmm
_ZnwmSt11align_val_t
_ZNSt6__ndk117__compressed_pairIPNS_12basic_stringIcNS_11char_traitsIcEENS_9allocatorIcEEEENS4_IS6_EEEC2IDnNS_18__default_init_tagEEEOT_OT0_
_ZNSt6__ndk122__compressed_pair_elemIPNS_12basic_stringIcNS_11char_traitsIcEENS_9allocatorIcEEEELi0ELb0EEC2IDnvEEOT_
_ZNSt6__ndk116allocator_traitsINS_9allocatorINS_12basic_stringIcNS_11char_traitsIcEENS1_IcEEEEEEE7destroyIS6_EEvRS7_PT_
_ZNSt6__ndk116allocator_traitsINS_9allocatorINS_12basic_stringIcNS_11char_traitsIcEENS1_IcEEEEEEE9__destroyIS6_EEvNS_17integral_constantIbLb0EEERS7_PT_
_ZNSt6__ndk117_DeallocateCaller27__do_deallocate_handle_sizeEPvmSt11align_val_t
_ZNSt6__ndk117_DeallocateCaller27__do_deallocate_handle_sizeEPvm
_ZNSt6__ndk117_DeallocateCaller9__do_callISt11align_val_tEEvPvT_
_ZNSt6__ndk117_DeallocateCaller9__do_callEPv
_ZdlPvSt11align_val_t
_ZNSt6__ndk16vectorINS_12basic_stringIcNS_11char_traitsIcEENS_9allocatorIcEEEENS4_IS6_EEE21_ConstructTransactionC2ERS8_m
_ZNSt6__ndk116allocator_traitsINS_9allocatorINS_12basic_stringIcNS_11char_traitsIcEENS1_IcEEEEEEE9constructIS6_JPKcEEEvRS7_PT_DpOT0_
_ZNSt6__ndk16vectorINS_12basic_stringIcNS_11char_traitsIcEENS_9allocatorIcEEEENS4_IS6_EEE21_ConstructTransactionD2Ev
_ZNSt6__ndk114__split_bufferINS_12basic_stringIcNS_11char_traitsIcEENS_9allocatorIcEEEERNS4_IS6_EEEC2EmmS8_
_ZNSt6__ndk16vectorINS_12basic_stringIcNS_11char_traitsIcEENS_9allocatorIcEEEENS4_IS6_EEE26__swap_out_circular_bufferERNS_14__split_bufferIS6_RS7_EE
_ZNSt6__ndk114__split_bufferINS_12basic_stringIcNS_11char_traitsIcEENS_9allocatorIcEEEERNS4_IS6_EEED2Ev
_ZNSt6__ndk116allocator_traitsINS_9allocatorINS_12basic_stringIcNS_11char_traitsIcEENS1_IcEEEEEEE11__constructIS6_JPKcEEEvNS_17integral_constantIbLb0EEERS7_PT_DpOT0_
_ZNKSt6__ndk16vectorINS_12basic_stringIcNS_11char_traitsIcEENS_9allocatorIcEEEENS4_IS6_EEE8max_sizeEv
_ZNKSt6__ndk120__vector_base_commonILb1EE20__throw_length_errorEv
_ZNSt6__ndk117__compressed_pairIPNS_12basic_stringIcNS_11char_traitsIcEENS_9allocatorIcEEEERNS4_IS6_EEEC2IDnS9_EEOT_OT0_
_ZNSt6__ndk116allocator_traitsINS_9allocatorINS_12basic_stringIcNS_11char_traitsIcEENS1_IcEEEEEEE46__construct_backward_with_exception_guaranteesIPS6_EEvRS7_T_SC_RSC_
_ZNSt6__ndk122__compressed_pair_elemIRNS_9allocatorINS_12basic_stringIcNS_11char_traitsIcEENS1_IcEEEEEELi1ELb0EEC2IS8_vEEOT_
_ZNSt6__ndk116allocator_traitsINS_9allocatorINS_12basic_stringIcNS_11char_traitsIcEENS1_IcEEEEEEE9constructIS6_JS6_EEEvRS7_PT_DpOT0_
_ZNSt6__ndk116allocator_traitsINS_9allocatorINS_12basic_stringIcNS_11char_traitsIcEENS1_IcEEEEEEE11__constructIS6_JS6_EEEvNS_17integral_constantIbLb0EEERS7_PT_DpOT0_
_ZNSt6__ndk112basic_stringIcNS_11char_traitsIcEENS_9allocatorIcEEE6appendEPKcm
_ZNSt6__ndk116allocator_traitsINS_9allocatorINS_12basic_stringIcNS_11char_traitsIcEENS1_IcEEEEEEE9constructIS6_JRKS6_EEEvRS7_PT_DpOT0_
_ZNSt6__ndk116allocator_traitsINS_9allocatorINS_12basic_stringIcNS_11char_traitsIcEENS1_IcEEEEEEE11__constructIS6_JRKS6_EEEvNS_17integral_constantIbLb0EEERS7_PT_DpOT0_
_ZNSt6__ndk113basic_filebufIcNS_11char_traitsIcEEE4openEPKcj
_ZNKSt6__ndk16locale9has_facetERNS0_2idE
_ZNSt6__ndk16localeC1ERKS0_
fseek
_ZTCNSt6__ndk118basic_stringstreamIcNS_11char_traitsIcEENS_9allocatorIcEEEE0_NS_14basic_iostreamIcS2_EE
_ZTCNSt6__ndk118basic_stringstreamIcNS_11char_traitsIcEENS_9allocatorIcEEEE0_NS_13basic_istreamIcS2_EE
_ZTCNSt6__ndk118basic_stringstreamIcNS_11char_traitsIcEENS_9allocatorIcEEEE16_NS_13basic_ostreamIcS2_EE
_ZNSt6__ndk114basic_iostreamIcNS_11char_traitsIcEEED1Ev
_ZNSt6__ndk114basic_iostreamIcNS_11char_traitsIcEEED0Ev
_ZThn16_NSt6__ndk114basic_iostreamIcNS_11char_traitsIcEEED1Ev
_ZThn16_NSt6__ndk114basic_iostreamIcNS_11char_traitsIcEEED0Ev
_ZTv0_n24_NSt6__ndk114basic_iostreamIcNS_11char_traitsIcEEED1Ev
_ZTv0_n24_NSt6__ndk114basic_iostreamIcNS_11char_traitsIcEEED0Ev
_ZNSt6__ndk113basic_istreamIcNS_11char_traitsIcEEED1Ev
_ZNSt6__ndk113basic_istreamIcNS_11char_traitsIcEEED0Ev
_ZTv0_n24_NSt6__ndk113basic_istreamIcNS_11char_traitsIcEEED1Ev
_ZTv0_n24_NSt6__ndk113basic_istreamIcNS_11char_traitsIcEEED0Ev
_ZNSt6__ndk113basic_ostreamIcNS_11char_traitsIcEEED1Ev
_ZNSt6__ndk113basic_ostreamIcNS_11char_traitsIcEEED0Ev
_ZTv0_n24_NSt6__ndk113basic_ostreamIcNS_11char_traitsIcEEED1Ev
_ZTv0_n24_NSt6__ndk113basic_ostreamIcNS_11char_traitsIcEEED0Ev
_ZNSt6__ndk115basic_streambufIcNS_11char_traitsIcEEE5imbueERKNS_6localeE
_ZNSt6__ndk115basic_streambufIcNS_11char_traitsIcEEE6setbufEPcl
_ZNSt6__ndk115basic_streambufIcNS_11char_traitsIcEEE4syncEv
_ZNSt6__ndk115basic_streambufIcNS_11char_traitsIcEEE9showmanycEv
_ZNSt6__ndk115basic_streambufIcNS_11char_traitsIcEEE6xsgetnEPcl
_ZNSt6__ndk115basic_streambufIcNS_11char_traitsIcEEE5uflowEv
_ZNSt6__ndk115basic_streambufIcNS_11char_traitsIcEEE6xsputnEPKcl
_ZTCNSt6__ndk114basic_ofstreamIcNS_11char_traitsIcEEEE0_NS_13basic_ostreamIcS2_EE
xdl_linker_load
dlclose
xdl_util_ends_with
xdl_iterate_phdr
xdl_close
free
xdl_dsym
strncmp
__open_2
xdl_iterate_get_full_pathname
fstat
xdl_addr
__memset_chk
xdl_addr_clean
xdl_iterate_phdr_impl
xdl_info
getauxval
calloc
strdup
lseek
malloc
__errno
__read_chk
xdl_lzma_decompress
dl_iterate_phdr
xdl_util_get_api_level
xdl_linker_lock
xdl_linker_unlock
sscanf
__strchr_chk
strchr
xdl_util_trim_ending
__strlcpy_chk
rewind
pthread_mutex_lock
pthread_mutex_unlock
xdl_util_starts_with
realloc
_ZNSt6__ndk16__itoa8__u32toaEjPc
_ZNSt6__ndk16__itoa8__u64toaEmPc
_ZNSt6__ndk118condition_variable10notify_oneEv
_ZNSt6__ndk118condition_variable10notify_allEv
_ZNSt6__ndk118condition_variable4waitERNS_11unique_lockINS_5mutexEEE
_ZNSt6__ndk118condition_variable15__do_timed_waitERNS_11unique_lockINS_5mutexEEENS_6chrono10time_pointINS5_12system_clockENS5_8durationIxNS_5ratioILl1ELl1000000000EEEEEEE
_ZNSt6__ndk125notify_all_at_thread_exitERNS_18condition_variableENS_11unique_lockINS_5mutexEEE
_ZNSt6__ndk118condition_variableD2Ev
_ZNSt6__ndk118condition_variableD1Ev
_ZSt18uncaught_exceptionv
_ZSt19uncaught_exceptionsv
_ZNSt13exception_ptrD2Ev
_ZNSt13exception_ptrC2ERKS_
_ZNSt13exception_ptraSERKS_
_ZNSt16nested_exceptionC2Ev
_ZTVSt16nested_exception
_ZSt17current_exceptionv
_ZNSt16nested_exceptionD2Ev
_ZNSt16nested_exceptionD0Ev
_ZNKSt16nested_exception14rethrow_nestedEv
_ZSt17rethrow_exceptionSt13exception_ptr
_ZTISt16nested_exception
_ZTSSt16nested_exception
_ZNSt13exception_ptrD1Ev
_ZNSt13exception_ptrC1ERKS_
_ZNSt16nested_exceptionC1Ev
_ZNSt16nested_exceptionD1Ev
_ZNSt6__ndk115future_categoryEv
_ZNSt6__ndk112future_errorC2ENS_10error_codeE
_ZTVNSt6__ndk112future_errorE
_ZNSt6__ndk112future_errorD2Ev
_ZNSt6__ndk112future_errorD0Ev
_ZNSt6__ndk117__assoc_sub_state16__on_zero_sharedEv
_ZNSt6__ndk117__assoc_sub_state9set_valueEv
_ZTINSt6__ndk112future_errorE
_ZNSt6__ndk117__assoc_sub_state24set_value_at_thread_exitEv
_ZNSt6__ndk117__assoc_sub_state13set_exceptionESt13exception_ptr
_ZNSt6__ndk117__assoc_sub_state28set_exception_at_thread_exitESt13exception_ptr
_ZNSt6__ndk117__assoc_sub_state12__make_readyEv
_ZNSt6__ndk117__assoc_sub_state4copyEv
_ZNSt6__ndk117__assoc_sub_state10__sub_waitERNS_11unique_lockINS_5mutexEEE
_ZNSt6__ndk117__assoc_sub_state4waitEv
_ZNSt6__ndk117__assoc_sub_state9__executeEv
_ZNSt6__ndk16futureIvEC2EPNS_17__assoc_sub_stateE
_ZNSt6__ndk16futureIvED2Ev
_ZNSt6__ndk16futureIvE3getEv
_ZNSt6__ndk17promiseIvEC2Ev
_ZTVNSt6__ndk117__assoc_sub_stateE
_ZNSt6__ndk17promiseIvED2Ev
_ZNSt6__ndk17promiseIvE10get_futureEv
_ZNSt6__ndk17promiseIvE9set_valueEv
_ZNSt6__ndk17promiseIvE13set_exceptionESt13exception_ptr
_ZNSt6__ndk17promiseIvE24set_value_at_thread_exitEv
_ZNSt6__ndk17promiseIvE28set_exception_at_thread_exitESt13exception_ptr
_ZNSt6__ndk113shared_futureIvED2Ev
_ZNSt6__ndk113shared_futureIvEaSERKS1_
_ZNSt6__ndk117__assoc_sub_stateD2Ev
_ZNSt6__ndk117__assoc_sub_stateD0Ev
_ZTSNSt6__ndk112future_errorE
_ZTINSt6__ndk117__assoc_sub_stateE
_ZTSNSt6__ndk117__assoc_sub_stateE
_ZNSt6__ndk112future_errorC1ENS_10error_codeE
_ZNSt6__ndk112future_errorD1Ev
_ZNSt6__ndk16futureIvEC1EPNS_17__assoc_sub_stateE
_ZNSt6__ndk16futureIvED1Ev
_ZNSt6__ndk17promiseIvEC1Ev
_ZNSt6__ndk17promiseIvED1Ev
_ZNSt6__ndk113shared_futureIvED1Ev
_ZNSt6__ndk18ios_baseD2Ev
_ZNSt6__ndk19basic_iosIcNS_11char_traitsIcEEED0Ev
_ZNSt6__ndk19basic_iosIcNS_11char_traitsIcEEE7copyfmtERKS3_
_ZNSt6__ndk18ios_base7copyfmtERKS0_
_ZNSt6__ndk18ios_base16__call_callbacksENS0_5eventE
_ZSt17__throw_bad_allocv
_ZNSt6__ndk16localeaSERKS0_
_ZNSt6__ndk19basic_iosIwNS_11char_traitsIwEEED2Ev
_ZNSt6__ndk19basic_iosIwNS_11char_traitsIwEEED0Ev
_ZNSt6__ndk19basic_iosIwNS_11char_traitsIwEEE7copyfmtERKS3_
_ZTVNSt6__ndk115basic_streambufIcNS_11char_traitsIcEEEE
_ZNSt6__ndk115basic_streambufIcNS_11char_traitsIcEEED0Ev
_ZNSt6__ndk115basic_streambufIcNS_11char_traitsIcEEE8pubimbueERKNS_6localeE
_ZNSt6__ndk115basic_streambufIcNS_11char_traitsIcEEE9pubsetbufEPcl
_ZNSt6__ndk115basic_streambufIcNS_11char_traitsIcEEE10pubseekposENS_4fposI9mbstate_tEEj
_ZNSt6__ndk115basic_streambufIcNS_11char_traitsIcEEE7pubsyncEv
_ZNSt6__ndk115basic_streambufIcNS_11char_traitsIcEEE8in_availEv
_ZNSt6__ndk115basic_streambufIcNS_11char_traitsIcEEE6snextcEv
_ZNSt6__ndk115basic_streambufIcNS_11char_traitsIcEEE6sbumpcEv
_ZNSt6__ndk115basic_streambufIcNS_11char_traitsIcEEE5sgetcEv
_ZNSt6__ndk115basic_streambufIcNS_11char_traitsIcEEE5sgetnEPcl
_ZNSt6__ndk115basic_streambufIcNS_11char_traitsIcEEE9sputbackcEc
_ZNSt6__ndk115basic_streambufIcNS_11char_traitsIcEEE7sungetcEv
_ZNSt6__ndk16localeC1Ev
_ZNSt6__ndk115basic_streambufIcNS_11char_traitsIcEEEC2ERKS3_
_ZNSt6__ndk115basic_streambufIcNS_11char_traitsIcEEEaSERKS3_
_ZNSt6__ndk115basic_streambufIcNS_11char_traitsIcEEE4swapERS3_
_ZNSt6__ndk115basic_streambufIcNS_11char_traitsIcEEE7seekoffExNS_8ios_base7seekdirEj
_ZNSt6__ndk115basic_streambufIcNS_11char_traitsIcEEE7seekposENS_4fposI9mbstate_tEEj
memcpy
_ZNSt6__ndk115basic_streambufIcNS_11char_traitsIcEEE9underflowEv
_ZNSt6__ndk115basic_streambufIcNS_11char_traitsIcEEE9pbackfailEi
_ZNSt6__ndk115basic_streambufIcNS_11char_traitsIcEEE8overflowEi
_ZNSt6__ndk115basic_streambufIwNS_11char_traitsIwEEED2Ev
_ZTVNSt6__ndk115basic_streambufIwNS_11char_traitsIwEEEE
_ZNSt6__ndk115basic_streambufIwNS_11char_traitsIwEEED0Ev
_ZNSt6__ndk115basic_streambufIwNS_11char_traitsIwEEE8pubimbueERKNS_6localeE
_ZNKSt6__ndk115basic_streambufIwNS_11char_traitsIwEEE6getlocEv
_ZNSt6__ndk115basic_streambufIwNS_11char_traitsIwEEE9pubsetbufEPwl
_ZNSt6__ndk115basic_streambufIwNS_11char_traitsIwEEE10pubseekoffExNS_8ios_base7seekdirEj
_ZNSt6__ndk115basic_streambufIwNS_11char_traitsIwEEE10pubseekposENS_4fposI9mbstate_tEEj
_ZNSt6__ndk115basic_streambufIwNS_11char_traitsIwEEE7pubsyncEv
_ZNSt6__ndk115basic_streambufIwNS_11char_traitsIwEEE8in_availEv
_ZNSt6__ndk115basic_streambufIwNS_11char_traitsIwEEE6snextcEv
_ZNSt6__ndk115basic_streambufIwNS_11char_traitsIwEEE6sbumpcEv
_ZNSt6__ndk115basic_streambufIwNS_11char_traitsIwEEE5sgetcEv
_ZNSt6__ndk115basic_streambufIwNS_11char_traitsIwEEE5sgetnEPwl
_ZNSt6__ndk115basic_streambufIwNS_11char_traitsIwEEE9sputbackcEw
_ZNSt6__ndk115basic_streambufIwNS_11char_traitsIwEEE7sungetcEv
_ZNSt6__ndk115basic_streambufIwNS_11char_traitsIwEEE5sputcEw
_ZNSt6__ndk115basic_streambufIwNS_11char_traitsIwEEE5sputnEPKwl
_ZNSt6__ndk115basic_streambufIwNS_11char_traitsIwEEEC2Ev
_ZNSt6__ndk115basic_streambufIwNS_11char_traitsIwEEEC2ERKS3_
_ZNSt6__ndk115basic_streambufIwNS_11char_traitsIwEEEaSERKS3_
_ZNSt6__ndk115basic_streambufIwNS_11char_traitsIwEEE4swapERS3_
_ZNSt6__ndk115basic_streambufIwNS_11char_traitsIwEEE5gbumpEi
_ZNSt6__ndk115basic_streambufIwNS_11char_traitsIwEEE4setgEPwS4_S4_
_ZNSt6__ndk115basic_streambufIwNS_11char_traitsIwEEE5pbumpEi
_ZNSt6__ndk115basic_streambufIwNS_11char_traitsIwEEE4setpEPwS4_
_ZNSt6__ndk115basic_streambufIwNS_11char_traitsIwEEE5imbueERKNS_6localeE
_ZNSt6__ndk115basic_streambufIwNS_11char_traitsIwEEE6setbufEPwl
_ZNSt6__ndk115basic_streambufIwNS_11char_traitsIwEEE7seekoffExNS_8ios_base7seekdirEj
_ZNSt6__ndk115basic_streambufIwNS_11char_traitsIwEEE7seekposENS_4fposI9mbstate_tEEj
_ZNSt6__ndk115basic_streambufIwNS_11char_traitsIwEEE4syncEv
_ZNSt6__ndk115basic_streambufIwNS_11char_traitsIwEEE9showmanycEv
_ZNSt6__ndk115basic_streambufIwNS_11char_traitsIwEEE6xsgetnEPwl
wmemcpy
_ZNSt6__ndk115basic_streambufIwNS_11char_traitsIwEEE9underflowEv
_ZNSt6__ndk115basic_streambufIwNS_11char_traitsIwEEE5uflowEv
_ZNSt6__ndk115basic_streambufIwNS_11char_traitsIwEEE9pbackfailEj
_ZNSt6__ndk115basic_streambufIwNS_11char_traitsIwEEE6xsputnEPKwl
_ZNSt6__ndk115basic_streambufIwNS_11char_traitsIwEEE8overflowEj
_ZNSt6__ndk113basic_istreamIcNS_11char_traitsIcEEEC1EPNS_15basic_streambufIcS2_EE
_ZTVNSt6__ndk113basic_istreamIcNS_11char_traitsIcEEEE
_ZNSt6__ndk113basic_istreamIcNS_11char_traitsIcEEED2Ev
_ZNSt6__ndk113basic_istreamIcNS_11char_traitsIcEEE4swapERS3_
_ZNSt6__ndk18ios_base4swapERS0_
_ZNSt6__ndk113basic_istreamIcNS_11char_traitsIcEEE6sentryC2ERS3_b
_ZNSt6__ndk113basic_ostreamIcNS_11char_traitsIcEEE5flushEv
_ZNSt6__ndk113basic_ostreamIcNS_11char_traitsIcEEE6sentryD2Ev
__cxa_begin_catch
__cxa_end_catch
__cxa_rethrow
_ZNSt6__ndk113basic_istreamIcNS_11char_traitsIcEEErsEPFRS3_S4_E
_ZNSt6__ndk113basic_istreamIcNS_11char_traitsIcEEErsEPFRNS_9basic_iosIcS2_EES6_E
_ZNSt6__ndk113basic_istreamIcNS_11char_traitsIcEEErsEPFRNS_8ios_baseES5_E
_ZNSt6__ndk113basic_istreamIcNS_11char_traitsIcEEErsEPNS_15basic_streambufIcS2_EE
_ZSt9terminatev
_ZNSt6__ndk113basic_istreamIcNS_11char_traitsIcEEErsERb
_ZNSt6__ndk17num_getIcNS_19istreambuf_iteratorIcNS_11char_traitsIcEEEEE2idE
_ZNSt6__ndk113basic_istreamIcNS_11char_traitsIcEEErsERs
_ZNSt6__ndk113basic_istreamIcNS_11char_traitsIcEEErsERt
_ZNSt6__ndk113basic_istreamIcNS_11char_traitsIcEEErsERi
_ZNSt6__ndk113basic_istreamIcNS_11char_traitsIcEEErsERj
_ZNSt6__ndk113basic_istreamIcNS_11char_traitsIcEEErsERl
_ZNSt6__ndk113basic_istreamIcNS_11char_traitsIcEEErsERm
_ZNSt6__ndk113basic_istreamIcNS_11char_traitsIcEEErsERx
_ZNSt6__ndk113basic_istreamIcNS_11char_traitsIcEEErsERy
_ZNSt6__ndk113basic_istreamIcNS_11char_traitsIcEEErsERf
_ZNSt6__ndk113basic_istreamIcNS_11char_traitsIcEEErsERd
_ZNSt6__ndk113basic_istreamIcNS_11char_traitsIcEEErsERe
_ZNSt6__ndk113basic_istreamIcNS_11char_traitsIcEEErsERPv
_ZNSt6__ndk113basic_istreamIcNS_11char_traitsIcEEE3getEv
_ZNSt6__ndk113basic_istreamIcNS_11char_traitsIcEEE3getERc
_ZNSt6__ndk113basic_istreamIcNS_11char_traitsIcEEE3getEPcl
_ZNSt6__ndk113basic_istreamIcNS_11char_traitsIcEEE3getEPclc
_ZNSt6__ndk113basic_istreamIcNS_11char_traitsIcEEE3getERNS_15basic_streambufIcS2_EE
_ZNSt6__ndk113basic_istreamIcNS_11char_traitsIcEEE3getERNS_15basic_streambufIcS2_EEc
_ZNSt6__ndk113basic_istreamIcNS_11char_traitsIcEEE7getlineEPcl
_ZNSt6__ndk113basic_istreamIcNS_11char_traitsIcEEE7getlineEPclc
_ZNSt6__ndk113basic_istreamIcNS_11char_traitsIcEEE6ignoreEli
_ZNSt6__ndk113basic_istreamIcNS_11char_traitsIcEEE4peekEv
_ZNSt6__ndk113basic_istreamIcNS_11char_traitsIcEEE4readEPcl
_ZNSt6__ndk113basic_istreamIcNS_11char_traitsIcEEE8readsomeEPcl
_ZNSt6__ndk113basic_istreamIcNS_11char_traitsIcEEE7putbackEc
_ZNSt6__ndk113basic_istreamIcNS_11char_traitsIcEEE5ungetEv
_ZNSt6__ndk113basic_istreamIcNS_11char_traitsIcEEE4syncEv
_ZNSt6__ndk113basic_istreamIcNS_11char_traitsIcEEE5tellgEv
_ZNSt6__ndk113basic_istreamIcNS_11char_traitsIcEEE5seekgENS_4fposI9mbstate_tEE
_ZNSt6__ndk113basic_istreamIcNS_11char_traitsIcEEE5seekgExNS_8ios_base7seekdirE
_ZNSt6__ndk113basic_istreamIwNS_11char_traitsIwEEEC2EPNS_15basic_streambufIwS2_EE
_ZNSt6__ndk113basic_istreamIwNS_11char_traitsIwEEEC1EPNS_15basic_streambufIwS2_EE
_ZTVNSt6__ndk113basic_istreamIwNS_11char_traitsIwEEEE
_ZNSt6__ndk113basic_istreamIwNS_11char_traitsIwEEED2Ev
_ZNSt6__ndk113basic_istreamIwNS_11char_traitsIwEEED1Ev
_ZTv0_n24_NSt6__ndk113basic_istreamIwNS_11char_traitsIwEEED1Ev
_ZNSt6__ndk113basic_istreamIwNS_11char_traitsIwEEED0Ev
_ZTv0_n24_NSt6__ndk113basic_istreamIwNS_11char_traitsIwEEED0Ev
_ZNSt6__ndk113basic_istreamIwNS_11char_traitsIwEEE4swapERS3_
_ZNSt6__ndk113basic_istreamIwNS_11char_traitsIwEEE6sentryC2ERS3_b
_ZNSt6__ndk113basic_ostreamIwNS_11char_traitsIwEEE5flushEv
_ZNSt6__ndk15ctypeIwE2idE
_ZNSt6__ndk113basic_ostreamIwNS_11char_traitsIwEEE6sentryD2Ev
_ZNSt6__ndk113basic_istreamIwNS_11char_traitsIwEEErsEPFRS3_S4_E
_ZNSt6__ndk113basic_istreamIwNS_11char_traitsIwEEErsEPFRNS_9basic_iosIwS2_EES6_E
_ZNSt6__ndk113basic_istreamIwNS_11char_traitsIwEEErsEPFRNS_8ios_baseES5_E
_ZNSt6__ndk113basic_istreamIwNS_11char_traitsIwEEErsEPNS_15basic_streambufIwS2_EE
_ZNSt6__ndk113basic_istreamIwNS_11char_traitsIwEEErsERb
_ZNSt6__ndk17num_getIwNS_19istreambuf_iteratorIwNS_11char_traitsIwEEEEE2idE
_ZNSt6__ndk113basic_istreamIwNS_11char_traitsIwEEErsERs
_ZNSt6__ndk113basic_istreamIwNS_11char_traitsIwEEErsERt
_ZNSt6__ndk113basic_istreamIwNS_11char_traitsIwEEErsERi
_ZNSt6__ndk113basic_istreamIwNS_11char_traitsIwEEErsERj
_ZNSt6__ndk113basic_istreamIwNS_11char_traitsIwEEErsERl
_ZNSt6__ndk113basic_istreamIwNS_11char_traitsIwEEErsERm
_ZNSt6__ndk113basic_istreamIwNS_11char_traitsIwEEErsERx
_ZNSt6__ndk113basic_istreamIwNS_11char_traitsIwEEErsERy
_ZNSt6__ndk113basic_istreamIwNS_11char_traitsIwEEErsERf
_ZNSt6__ndk113basic_istreamIwNS_11char_traitsIwEEErsERd
_ZNSt6__ndk113basic_istreamIwNS_11char_traitsIwEEErsERe
_ZNSt6__ndk113basic_istreamIwNS_11char_traitsIwEEErsERPv
_ZNSt6__ndk113basic_istreamIwNS_11char_traitsIwEEE3getEv
_ZNSt6__ndk113basic_istreamIwNS_11char_traitsIwEEE3getERw
_ZNSt6__ndk113basic_istreamIwNS_11char_traitsIwEEE3getEPwl
_ZNSt6__ndk113basic_istreamIwNS_11char_traitsIwEEE3getEPwlw
_ZNSt6__ndk113basic_istreamIwNS_11char_traitsIwEEE3getERNS_15basic_streambufIwS2_EE
_ZNSt6__ndk113basic_istreamIwNS_11char_traitsIwEEE3getERNS_15basic_streambufIwS2_EEw
_ZNSt6__ndk113basic_istreamIwNS_11char_traitsIwEEE7getlineEPwl
_ZNSt6__ndk113basic_istreamIwNS_11char_traitsIwEEE7getlineEPwlw
_ZNSt6__ndk113basic_istreamIwNS_11char_traitsIwEEE6ignoreElj
_ZNSt6__ndk113basic_istreamIwNS_11char_traitsIwEEE4peekEv
_ZNSt6__ndk113basic_istreamIwNS_11char_traitsIwEEE4readEPwl
_ZNSt6__ndk113basic_istreamIwNS_11char_traitsIwEEE8readsomeEPwl
_ZNSt6__ndk113basic_istreamIwNS_11char_traitsIwEEE7putbackEw
_ZNSt6__ndk113basic_istreamIwNS_11char_traitsIwEEE5ungetEv
_ZNSt6__ndk113basic_istreamIwNS_11char_traitsIwEEE4syncEv
_ZNSt6__ndk113basic_istreamIwNS_11char_traitsIwEEE5tellgEv
_ZNSt6__ndk113basic_istreamIwNS_11char_traitsIwEEE5seekgENS_4fposI9mbstate_tEE
_ZNSt6__ndk113basic_istreamIwNS_11char_traitsIwEEE5seekgExNS_8ios_base7seekdirE
_ZNSt6__ndk113basic_ostreamIcNS_11char_traitsIcEEEC1EPNS_15basic_streambufIcS2_EE
_ZTVNSt6__ndk113basic_ostreamIcNS_11char_traitsIcEEEE
_ZNSt6__ndk113basic_ostreamIcNS_11char_traitsIcEEE4swapERS3_
_ZNSt6__ndk113basic_ostreamIcNS_11char_traitsIcEEE6sentryC2ERS3_
_ZNSt6__ndk113basic_ostreamIcNS_11char_traitsIcEEElsEPFRS3_S4_E
_ZNSt6__ndk113basic_ostreamIcNS_11char_traitsIcEEElsEPFRNS_9basic_iosIcS2_EES6_E
_ZNSt6__ndk113basic_ostreamIcNS_11char_traitsIcEEElsEb
_ZNSt6__ndk17num_putIcNS_19ostreambuf_iteratorIcNS_11char_traitsIcEEEEE2idE
_ZNSt6__ndk18ios_base33__set_badbit_and_consider_rethrowEv
_ZNSt6__ndk113basic_ostreamIcNS_11char_traitsIcEEElsEs
_ZNSt6__ndk113basic_ostreamIcNS_11char_traitsIcEEElsEt
_ZNSt6__ndk113basic_ostreamIcNS_11char_traitsIcEEElsEj
_ZNSt6__ndk113basic_ostreamIcNS_11char_traitsIcEEElsEl
_ZNSt6__ndk113basic_ostreamIcNS_11char_traitsIcEEElsEx
_ZNSt6__ndk113basic_ostreamIcNS_11char_traitsIcEEElsEy
_ZNSt6__ndk113basic_ostreamIcNS_11char_traitsIcEEElsEf
_ZNSt6__ndk113basic_ostreamIcNS_11char_traitsIcEEElsEd
_ZNSt6__ndk113basic_ostreamIcNS_11char_traitsIcEEElsEe
_ZNSt6__ndk113basic_ostreamIcNS_11char_traitsIcEEElsEPKv
_ZNSt6__ndk113basic_ostreamIcNS_11char_traitsIcEEElsEPNS_15basic_streambufIcS2_EE
_ZNSt6__ndk18ios_base34__set_failbit_and_consider_rethrowEv
_ZNSt6__ndk113basic_ostreamIcNS_11char_traitsIcEEE3putEc
_ZNSt6__ndk113basic_ostreamIcNS_11char_traitsIcEEE5writeEPKcl
_ZNSt6__ndk113basic_ostreamIcNS_11char_traitsIcEEE5tellpEv
_ZNSt6__ndk113basic_ostreamIcNS_11char_traitsIcEEE5seekpENS_4fposI9mbstate_tEE
_ZNSt6__ndk113basic_ostreamIwNS_11char_traitsIwEEEC2EPNS_15basic_streambufIwS2_EE
_ZNSt6__ndk113basic_ostreamIwNS_11char_traitsIwEEEC1EPNS_15basic_streambufIwS2_EE
_ZTVNSt6__ndk113basic_ostreamIwNS_11char_traitsIwEEEE
_ZNSt6__ndk113basic_ostreamIwNS_11char_traitsIwEEED2Ev
_ZNSt6__ndk113basic_ostreamIwNS_11char_traitsIwEEED1Ev
_ZTv0_n24_NSt6__ndk113basic_ostreamIwNS_11char_traitsIwEEED1Ev
_ZNSt6__ndk113basic_ostreamIwNS_11char_traitsIwEEED0Ev
_ZTv0_n24_NSt6__ndk113basic_ostreamIwNS_11char_traitsIwEEED0Ev
_ZNSt6__ndk113basic_ostreamIwNS_11char_traitsIwEEE4swapERS3_
_ZNSt6__ndk113basic_ostreamIwNS_11char_traitsIwEEE6sentryC2ERS3_
_ZNSt6__ndk113basic_ostreamIwNS_11char_traitsIwEEElsEPFRS3_S4_E
_ZNSt6__ndk113basic_ostreamIwNS_11char_traitsIwEEElsEPFRNS_9basic_iosIwS2_EES6_E
_ZNSt6__ndk113basic_ostreamIwNS_11char_traitsIwEEElsEPFRNS_8ios_baseES5_E
_ZNSt6__ndk113basic_ostreamIwNS_11char_traitsIwEEElsEb
_ZNSt6__ndk17num_putIwNS_19ostreambuf_iteratorIwNS_11char_traitsIwEEEEE2idE
_ZNSt6__ndk113basic_ostreamIwNS_11char_traitsIwEEElsEs
_ZNSt6__ndk113basic_ostreamIwNS_11char_traitsIwEEElsEt
_ZNSt6__ndk113basic_ostreamIwNS_11char_traitsIwEEElsEi
_ZNSt6__ndk113basic_ostreamIwNS_11char_traitsIwEEElsEj
_ZNSt6__ndk113basic_ostreamIwNS_11char_traitsIwEEElsEl
_ZNSt6__ndk113basic_ostreamIwNS_11char_traitsIwEEElsEm
_ZNSt6__ndk113basic_ostreamIwNS_11char_traitsIwEEElsEx
_ZNSt6__ndk113basic_ostreamIwNS_11char_traitsIwEEElsEy
_ZNSt6__ndk113basic_ostreamIwNS_11char_traitsIwEEElsEf
_ZNSt6__ndk113basic_ostreamIwNS_11char_traitsIwEEElsEd
_ZNSt6__ndk113basic_ostreamIwNS_11char_traitsIwEEElsEe
_ZNSt6__ndk113basic_ostreamIwNS_11char_traitsIwEEElsEPKv
_ZNSt6__ndk113basic_ostreamIwNS_11char_traitsIwEEElsEPNS_15basic_streambufIwS2_EE
_ZNSt6__ndk113basic_ostreamIwNS_11char_traitsIwEEE3putEw
_ZNSt6__ndk113basic_ostreamIwNS_11char_traitsIwEEE5writeEPKwl
_ZNSt6__ndk113basic_ostreamIwNS_11char_traitsIwEEE5tellpEv
_ZNSt6__ndk113basic_ostreamIwNS_11char_traitsIwEEE5seekpENS_4fposI9mbstate_tEE
_ZNSt6__ndk113basic_ostreamIwNS_11char_traitsIwEEE5seekpExNS_8ios_base7seekdirE
_ZNSt6__ndk114basic_iostreamIcNS_11char_traitsIcEEEC1EPNS_15basic_streambufIcS2_EE
_ZTCNSt6__ndk114basic_iostreamIcNS_11char_traitsIcEEEE0_NS_13basic_istreamIcS2_EE
_ZTVNSt6__ndk114basic_iostreamIcNS_11char_traitsIcEEEE
_ZNSt6__ndk114basic_iostreamIcNS_11char_traitsIcEEE4swapERS3_
_ZNSt6__ndk117iostream_categoryEv
__cxa_guard_acquire
_ZNSt6__ndk114error_categoryC2Ev
_ZNSt6__ndk114error_categoryD2Ev
__cxa_guard_release
_ZNSt6__ndk18ios_base7failureC2ERKNS_12basic_stringIcNS_11char_traitsIcEENS_9allocatorIcEEEERKNS_10error_codeE
_ZNSt6__ndk112system_errorC2ENS_10error_codeERKNS_12basic_stringIcNS_11char_traitsIcEENS_9allocatorIcEEEE
_ZTVNSt6__ndk18ios_base7failureE
_ZNSt6__ndk18ios_base7failureC2EPKcRKNS_10error_codeE
_ZNSt6__ndk112system_errorC2ENS_10error_codeEPKc
_ZNSt6__ndk18ios_base7failureD2Ev
_ZNSt6__ndk112system_errorD2Ev
_ZNSt6__ndk18ios_base7failureD0Ev
_ZNSt6__ndk18ios_base5imbueERKNS_6localeE
_ZNSt6__ndk18ios_base6xallocEv
_ZNSt6__ndk18ios_base9__xindex_E
_ZNSt6__ndk18ios_base5iwordEi
_ZNSt6__ndk18ios_base5pwordEi
_ZNSt6__ndk18ios_base17register_callbackEPFvNS0_5eventERS0_iEi
_ZNSt6__ndk18ios_baseD0Ev
__cxa_allocate_exception
_ZTINSt6__ndk18ios_base7failureE
__cxa_throw
__cxa_free_exception
_ZNSt6__ndk18ios_base4moveERS0_
_ZNSt6__ndk18ios_base15sync_with_stdioEb
_ZTINSt6__ndk115basic_streambufIcNS_11char_traitsIcEEEE
_ZTINSt6__ndk115basic_streambufIwNS_11char_traitsIwEEEE
_ZTINSt6__ndk113basic_istreamIcNS_11char_traitsIcEEEE
_ZTTNSt6__ndk113basic_istreamIcNS_11char_traitsIcEEEE
_ZTINSt6__ndk113basic_istreamIwNS_11char_traitsIwEEEE
_ZTTNSt6__ndk113basic_istreamIwNS_11char_traitsIwEEEE
_ZTINSt6__ndk113basic_ostreamIcNS_11char_traitsIcEEEE
_ZTTNSt6__ndk113basic_ostreamIcNS_11char_traitsIcEEEE
_ZTINSt6__ndk113basic_ostreamIwNS_11char_traitsIwEEEE
_ZTTNSt6__ndk113basic_ostreamIwNS_11char_traitsIwEEEE
_ZTINSt6__ndk114basic_iostreamIcNS_11char_traitsIcEEEE
_ZTTNSt6__ndk114basic_iostreamIcNS_11char_traitsIcEEEE
_ZTCNSt6__ndk114basic_iostreamIcNS_11char_traitsIcEEEE16_NS_13basic_ostreamIcS2_EE
_ZNKSt13runtime_error4whatEv
_ZNSt6__ndk18ios_base9boolalphaE
_ZNSt6__ndk18ios_base3decE
_ZNSt6__ndk18ios_base5fixedE
_ZNSt6__ndk18ios_base3hexE
_ZNSt6__ndk18ios_base8internalE
_ZNSt6__ndk18ios_base4leftE
_ZNSt6__ndk18ios_base3octE
_ZNSt6__ndk18ios_base5rightE
_ZNSt6__ndk18ios_base10scientificE
_ZNSt6__ndk18ios_base8showbaseE
_ZNSt6__ndk18ios_base9showpointE
_ZNSt6__ndk18ios_base7showposE
_ZNSt6__ndk18ios_base6skipwsE
_ZNSt6__ndk18ios_base7unitbufE
_ZNSt6__ndk18ios_base9uppercaseE
_ZNSt6__ndk18ios_base11adjustfieldE
_ZNSt6__ndk18ios_base9basefieldE
_ZNSt6__ndk18ios_base10floatfieldE
_ZNSt6__ndk18ios_base6badbitE
_ZNSt6__ndk18ios_base6eofbitE
_ZNSt6__ndk18ios_base7failbitE
_ZNSt6__ndk18ios_base7goodbitE
_ZNSt6__ndk18ios_base3appE
_ZNSt6__ndk18ios_base3ateE
_ZNSt6__ndk18ios_base6binaryE
_ZNSt6__ndk18ios_base2inE
_ZNSt6__ndk18ios_base3outE
_ZNSt6__ndk18ios_base5truncE
_ZTINSt6__ndk18ios_baseE
_ZTSNSt6__ndk18ios_baseE
_ZTVN10__cxxabiv117__class_type_infoE
_ZTSNSt6__ndk18ios_base7failureE
_ZTVN10__cxxabiv120__si_class_type_infoE
_ZTINSt6__ndk112system_errorE
_ZTINSt6__ndk19basic_iosIcNS_11char_traitsIcEEEE
_ZTSNSt6__ndk19basic_iosIcNS_11char_traitsIcEEEE
_ZTVNSt6__ndk19basic_iosIwNS_11char_traitsIwEEEE
_ZTINSt6__ndk19basic_iosIwNS_11char_traitsIwEEEE
_ZTSNSt6__ndk19basic_iosIwNS_11char_traitsIwEEEE
_ZTSNSt6__ndk115basic_streambufIcNS_11char_traitsIcEEEE
_ZTSNSt6__ndk115basic_streambufIwNS_11char_traitsIwEEEE
_ZTSNSt6__ndk113basic_istreamIcNS_11char_traitsIcEEEE
_ZTVN10__cxxabiv121__vmi_class_type_infoE
_ZTSNSt6__ndk113basic_istreamIwNS_11char_traitsIwEEEE
_ZTSNSt6__ndk113basic_ostreamIcNS_11char_traitsIcEEEE
_ZTSNSt6__ndk113basic_ostreamIwNS_11char_traitsIwEEEE
_ZTSNSt6__ndk114basic_iostreamIcNS_11char_traitsIcEEEE
_ZNKSt6__ndk114error_category23default_error_conditionEi
_ZNKSt6__ndk114error_category10equivalentEiRKNS_15error_conditionE
_ZNKSt6__ndk114error_category10equivalentERKNS_10error_codeEi
__gxx_personality_v0
_ZNSt6__ndk19basic_iosIcNS_11char_traitsIcEEED1Ev
_ZNSt6__ndk19basic_iosIwNS_11char_traitsIwEEED1Ev
_ZNSt6__ndk115basic_streambufIcNS_11char_traitsIcEEED1Ev
_ZNSt6__ndk115basic_streambufIcNS_11char_traitsIcEEEC1Ev
_ZNSt6__ndk115basic_streambufIcNS_11char_traitsIcEEEC1ERKS3_
_ZNSt6__ndk115basic_streambufIwNS_11char_traitsIwEEED1Ev
_ZNSt6__ndk115basic_streambufIwNS_11char_traitsIwEEEC1Ev
_ZNSt6__ndk115basic_streambufIwNS_11char_traitsIwEEEC1ERKS3_
_ZNSt6__ndk113basic_istreamIcNS_11char_traitsIcEEE6sentryC1ERS3_b
_ZNSt6__ndk113basic_istreamIwNS_11char_traitsIwEEE6sentryC1ERS3_b
_ZNSt6__ndk113basic_ostreamIwNS_11char_traitsIwEEE6sentryC1ERS3_
_ZNSt6__ndk113basic_ostreamIwNS_11char_traitsIwEEE6sentryD1Ev
_ZNSt6__ndk18ios_base7failureC1ERKNS_12basic_stringIcNS_11char_traitsIcEENS_9allocatorIcEEEERKNS_10error_codeE
_ZNSt6__ndk18ios_base7failureC1EPKcRKNS_10error_codeE
_ZNSt6__ndk18ios_base7failureD1Ev
_ZNSt6__ndk18ios_baseD1Ev
__cxa_uncaught_exceptions
__cxa_decrement_exception_refcount
__cxa_increment_exception_refcount
__cxa_current_primary_exception
__cxa_rethrow_primary_exception
_ZNSt6__ndk17collateIcED2Ev
_ZNSt6__ndk17collateIcED0Ev
_ZNKSt6__ndk17collateIcE10do_compareEPKcS3_S3_S3_
_ZNKSt6__ndk17collateIcE12do_transformEPKcS3_
_ZNKSt6__ndk17collateIcE7do_hashEPKcS3_
_ZNSt6__ndk17collateIwED2Ev
_ZNSt6__ndk17collateIwED0Ev
_ZNKSt6__ndk17collateIwE10do_compareEPKwS3_S3_S3_
_ZNKSt6__ndk17collateIwE12do_transformEPKwS3_
_ZNKSt6__ndk17collateIwE7do_hashEPKwS3_
_ZNKSt6__ndk17num_getIcNS_19istreambuf_iteratorIcNS_11char_traitsIcEEEEE6do_getES4_S4_RNS_8ios_baseERjRb
_ZNSt6__ndk114__shared_countD2Ev
_ZNSt6__ndk16locale2id6__initEv
_ZNSt6__ndk111__call_onceERVmPvPFvS2_E
_ZNSt6__ndk114__shared_count16__release_sharedEv
_ZNSt6__ndk18numpunctIcE2idE
_ZNKSt6__ndk17num_getIcNS_19istreambuf_iteratorIcNS_11char_traitsIcEEEEE6do_getES4_S4_RNS_8ios_baseERjRl
_ZNKSt6__ndk17num_getIcNS_19istreambuf_iteratorIcNS_11char_traitsIcEEEEE15__do_get_signedIlEES4_S4_S4_RNS_8ios_baseERjRT_
_ZNSt6__ndk19__num_getIcE17__stage2_int_prepERNS_8ios_baseEPcRc
_ZNSt6__ndk19__num_getIcE17__stage2_int_loopEciPcRS2_RjcRKNS_12basic_stringIcNS_11char_traitsIcEENS_9allocatorIcEEEEPjRSD_S2_
_ZNKSt6__ndk17num_getIcNS_19istreambuf_iteratorIcNS_11char_traitsIcEEEEE6do_getES4_S4_RNS_8ios_baseERjRx
_ZNKSt6__ndk17num_getIcNS_19istreambuf_iteratorIcNS_11char_traitsIcEEEEE15__do_get_signedIxEES4_S4_S4_RNS_8ios_baseERjRT_
_ZNKSt6__ndk17num_getIcNS_19istreambuf_iteratorIcNS_11char_traitsIcEEEEE6do_getES4_S4_RNS_8ios_baseERjRt
_ZNKSt6__ndk17num_getIcNS_19istreambuf_iteratorIcNS_11char_traitsIcEEEEE17__do_get_unsignedItEES4_S4_S4_RNS_8ios_baseERjRT_
_ZNKSt6__ndk17num_getIcNS_19istreambuf_iteratorIcNS_11char_traitsIcEEEEE6do_getES4_S4_RNS_8ios_baseERjS8_
_ZNKSt6__ndk17num_getIcNS_19istreambuf_iteratorIcNS_11char_traitsIcEEEEE17__do_get_unsignedIjEES4_S4_S4_RNS_8ios_baseERjRT_
_ZNKSt6__ndk17num_getIcNS_19istreambuf_iteratorIcNS_11char_traitsIcEEEEE6do_getES4_S4_RNS_8ios_baseERjRm
_ZNKSt6__ndk17num_getIcNS_19istreambuf_iteratorIcNS_11char_traitsIcEEEEE17__do_get_unsignedImEES4_S4_S4_RNS_8ios_baseERjRT_
_ZNKSt6__ndk17num_getIcNS_19istreambuf_iteratorIcNS_11char_traitsIcEEEEE6do_getES4_S4_RNS_8ios_baseERjRy
_ZNKSt6__ndk17num_getIcNS_19istreambuf_iteratorIcNS_11char_traitsIcEEEEE17__do_get_unsignedIyEES4_S4_S4_RNS_8ios_baseERjRT_
_ZNKSt6__ndk17num_getIcNS_19istreambuf_iteratorIcNS_11char_traitsIcEEEEE6do_getES4_S4_RNS_8ios_baseERjRf
_ZNKSt6__ndk17num_getIcNS_19istreambuf_iteratorIcNS_11char_traitsIcEEEEE23__do_get_floating_pointIfEES4_S4_S4_RNS_8ios_baseERjRT_
_ZNSt6__ndk19__num_getIcE19__stage2_float_prepERNS_8ios_baseEPcRcS5_
_ZNSt6__ndk19__num_getIcE19__stage2_float_loopEcRbRcPcRS4_ccRKNS_12basic_stringIcNS_11char_traitsIcEENS_9allocatorIcEEEEPjRSE_RjS4_
_ZNKSt6__ndk17num_getIcNS_19istreambuf_iteratorIcNS_11char_traitsIcEEEEE6do_getES4_S4_RNS_8ios_baseERjRd
_ZNKSt6__ndk17num_getIcNS_19istreambuf_iteratorIcNS_11char_traitsIcEEEEE23__do_get_floating_pointIdEES4_S4_S4_RNS_8ios_baseERjRT_
_ZNKSt6__ndk17num_getIcNS_19istreambuf_iteratorIcNS_11char_traitsIcEEEEE6do_getES4_S4_RNS_8ios_baseERjRe
_ZNKSt6__ndk17num_getIcNS_19istreambuf_iteratorIcNS_11char_traitsIcEEEEE23__do_get_floating_pointIeEES4_S4_S4_RNS_8ios_baseERjRT_
_ZNKSt6__ndk17num_getIcNS_19istreambuf_iteratorIcNS_11char_traitsIcEEEEE6do_getES4_S4_RNS_8ios_baseERjRPv
_ZNSt6__ndk114__num_get_base5__srcE
_ZNSt6__ndk117__libcpp_sscanf_lEPKcP10__locale_tS1_z
newlocale
__cxa_guard_abort
uselocale
vsscanf
_ZNSt6__ndk16__clocEv
_ZNKSt6__ndk17num_getIwNS_19istreambuf_iteratorIwNS_11char_traitsIwEEEEE6do_getES4_S4_RNS_8ios_baseERjRb
_ZNSt6__ndk18numpunctIwE2idE
_ZNKSt6__ndk17num_getIwNS_19istreambuf_iteratorIwNS_11char_traitsIwEEEEE6do_getES4_S4_RNS_8ios_baseERjRl
_ZNKSt6__ndk17num_getIwNS_19istreambuf_iteratorIwNS_11char_traitsIwEEEEE15__do_get_signedIlEES4_S4_S4_RNS_8ios_baseERjRT_
_ZNSt6__ndk19__num_getIwE17__stage2_int_prepERNS_8ios_baseEPwRw
_ZNSt6__ndk19__num_getIwE17__stage2_int_loopEwiPcRS2_RjwRKNS_12basic_stringIcNS_11char_traitsIcEENS_9allocatorIcEEEEPjRSD_Pw
_ZNKSt6__ndk17num_getIwNS_19istreambuf_iteratorIwNS_11char_traitsIwEEEEE6do_getES4_S4_RNS_8ios_baseERjRx
_ZNKSt6__ndk17num_getIwNS_19istreambuf_iteratorIwNS_11char_traitsIwEEEEE15__do_get_signedIxEES4_S4_S4_RNS_8ios_baseERjRT_
_ZNKSt6__ndk17num_getIwNS_19istreambuf_iteratorIwNS_11char_traitsIwEEEEE6do_getES4_S4_RNS_8ios_baseERjRt
_ZNKSt6__ndk17num_getIwNS_19istreambuf_iteratorIwNS_11char_traitsIwEEEEE17__do_get_unsignedItEES4_S4_S4_RNS_8ios_baseERjRT_
_ZNKSt6__ndk17num_getIwNS_19istreambuf_iteratorIwNS_11char_traitsIwEEEEE6do_getES4_S4_RNS_8ios_baseERjS8_
_ZNKSt6__ndk17num_getIwNS_19istreambuf_iteratorIwNS_11char_traitsIwEEEEE17__do_get_unsignedIjEES4_S4_S4_RNS_8ios_baseERjRT_
_ZNKSt6__ndk17num_getIwNS_19istreambuf_iteratorIwNS_11char_traitsIwEEEEE6do_getES4_S4_RNS_8ios_baseERjRm
_ZNKSt6__ndk17num_getIwNS_19istreambuf_iteratorIwNS_11char_traitsIwEEEEE17__do_get_unsignedImEES4_S4_S4_RNS_8ios_baseERjRT_
_ZNKSt6__ndk17num_getIwNS_19istreambuf_iteratorIwNS_11char_traitsIwEEEEE6do_getES4_S4_RNS_8ios_baseERjRy
_ZNKSt6__ndk17num_getIwNS_19istreambuf_iteratorIwNS_11char_traitsIwEEEEE17__do_get_unsignedIyEES4_S4_S4_RNS_8ios_baseERjRT_
_ZNKSt6__ndk17num_getIwNS_19istreambuf_iteratorIwNS_11char_traitsIwEEEEE6do_getES4_S4_RNS_8ios_baseERjRf
_ZNKSt6__ndk17num_getIwNS_19istreambuf_iteratorIwNS_11char_traitsIwEEEEE23__do_get_floating_pointIfEES4_S4_S4_RNS_8ios_baseERjRT_
_ZNSt6__ndk19__num_getIwE19__stage2_float_prepERNS_8ios_baseEPwRwS5_
_ZNSt6__ndk19__num_getIwE19__stage2_float_loopEwRbRcPcRS4_wwRKNS_12basic_stringIcNS_11char_traitsIcEENS_9allocatorIcEEEEPjRSE_RjPw
_ZNKSt6__ndk17num_getIwNS_19istreambuf_iteratorIwNS_11char_traitsIwEEEEE6do_getES4_S4_RNS_8ios_baseERjRd
_ZNKSt6__ndk17num_getIwNS_19istreambuf_iteratorIwNS_11char_traitsIwEEEEE23__do_get_floating_pointIdEES4_S4_S4_RNS_8ios_baseERjRT_
_ZNKSt6__ndk17num_getIwNS_19istreambuf_iteratorIwNS_11char_traitsIwEEEEE6do_getES4_S4_RNS_8ios_baseERjRe
_ZNKSt6__ndk17num_getIwNS_19istreambuf_iteratorIwNS_11char_traitsIwEEEEE23__do_get_floating_pointIeEES4_S4_S4_RNS_8ios_baseERjRT_
_ZNKSt6__ndk17num_getIwNS_19istreambuf_iteratorIwNS_11char_traitsIwEEEEE6do_getES4_S4_RNS_8ios_baseERjRPv
_ZNKSt6__ndk17num_putIcNS_19ostreambuf_iteratorIcNS_11char_traitsIcEEEEE6do_putES4_RNS_8ios_baseEcb
_ZNKSt6__ndk17num_putIcNS_19ostreambuf_iteratorIcNS_11char_traitsIcEEEEE6do_putES4_RNS_8ios_baseEcl
_ZNSt6__ndk119__libcpp_snprintf_lEPcmP10__locale_tPKcz
_ZNSt6__ndk19__num_putIcE21__widen_and_group_intEPcS2_S2_S2_RS2_S3_RKNS_6localeE
_ZNSt6__ndk114__num_put_base12__format_intEPcPKcbj
_ZNSt6__ndk114__num_put_base18__identify_paddingEPcS1_RKNS_8ios_baseE
_ZNKSt6__ndk17num_putIcNS_19ostreambuf_iteratorIcNS_11char_traitsIcEEEEE6do_putES4_RNS_8ios_baseEcx
_ZNKSt6__ndk17num_putIcNS_19ostreambuf_iteratorIcNS_11char_traitsIcEEEEE6do_putES4_RNS_8ios_baseEcm
_ZNKSt6__ndk17num_putIcNS_19ostreambuf_iteratorIcNS_11char_traitsIcEEEEE6do_putES4_RNS_8ios_baseEcy
_ZNKSt6__ndk17num_putIcNS_19ostreambuf_iteratorIcNS_11char_traitsIcEEEEE6do_putES4_RNS_8ios_baseEcd
_ZNSt6__ndk119__libcpp_asprintf_lEPPcP10__locale_tPKcz
_ZNSt6__ndk19__num_putIcE23__widen_and_group_floatEPcS2_S2_S2_RS2_S3_RKNS_6localeE
_ZNSt6__ndk114__num_put_base14__format_floatEPcPKcj
vasprintf
isxdigit_l
isdigit_l
_ZNKSt6__ndk17num_putIcNS_19ostreambuf_iteratorIcNS_11char_traitsIcEEEEE6do_putES4_RNS_8ios_baseEce
_ZNKSt6__ndk17num_putIcNS_19ostreambuf_iteratorIcNS_11char_traitsIcEEEEE6do_putES4_RNS_8ios_baseEcPKv
_ZNKSt6__ndk17num_putIwNS_19ostreambuf_iteratorIwNS_11char_traitsIwEEEEE6do_putES4_RNS_8ios_baseEwb
_ZNKSt6__ndk17num_putIwNS_19ostreambuf_iteratorIwNS_11char_traitsIwEEEEE6do_putES4_RNS_8ios_baseEwl
_ZNSt6__ndk19__num_putIwE21__widen_and_group_intEPcS2_S2_PwRS3_S4_RKNS_6localeE
wmemset
_ZNKSt6__ndk17num_putIwNS_19ostreambuf_iteratorIwNS_11char_traitsIwEEEEE6do_putES4_RNS_8ios_baseEwx
_ZNKSt6__ndk17num_putIwNS_19ostreambuf_iteratorIwNS_11char_traitsIwEEEEE6do_putES4_RNS_8ios_baseEwm
_ZNKSt6__ndk17num_putIwNS_19ostreambuf_iteratorIwNS_11char_traitsIwEEEEE6do_putES4_RNS_8ios_baseEwy
_ZNKSt6__ndk17num_putIwNS_19ostreambuf_iteratorIwNS_11char_traitsIwEEEEE6do_putES4_RNS_8ios_baseEwd
_ZNSt6__ndk19__num_putIwE23__widen_and_group_floatEPcS2_S2_PwRS3_S4_RKNS_6localeE
_ZNKSt6__ndk17num_putIwNS_19ostreambuf_iteratorIwNS_11char_traitsIwEEEEE6do_putES4_RNS_8ios_baseEwe
_ZNKSt6__ndk17num_putIwNS_19ostreambuf_iteratorIwNS_11char_traitsIwEEEEE6do_putES4_RNS_8ios_baseEwPKv
_ZNKSt6__ndk18time_getIcNS_19istreambuf_iteratorIcNS_11char_traitsIcEEEEE3getES4_S4_RNS_8ios_baseERjP2tmPKcSC_
_ZNKSt6__ndk18time_getIcNS_19istreambuf_iteratorIcNS_11char_traitsIcEEEEE13do_date_orderEv
_ZNKSt6__ndk18time_getIcNS_19istreambuf_iteratorIcNS_11char_traitsIcEEEEE11do_get_timeES4_S4_RNS_8ios_baseERjP2tm
_ZNKSt6__ndk18time_getIcNS_19istreambuf_iteratorIcNS_11char_traitsIcEEEEE11do_get_dateES4_S4_RNS_8ios_baseERjP2tm
_ZNKSt6__ndk18time_getIcNS_19istreambuf_iteratorIcNS_11char_traitsIcEEEEE14do_get_weekdayES4_S4_RNS_8ios_baseERjP2tm
_ZNKSt6__ndk18time_getIcNS_19istreambuf_iteratorIcNS_11char_traitsIcEEEEE17__get_weekdaynameERiRS4_S4_RjRKNS_5ctypeIcEE
_ZNKSt6__ndk18time_getIcNS_19istreambuf_iteratorIcNS_11char_traitsIcEEEEE16do_get_monthnameES4_S4_RNS_8ios_baseERjP2tm
_ZNKSt6__ndk18time_getIcNS_19istreambuf_iteratorIcNS_11char_traitsIcEEEEE15__get_monthnameERiRS4_S4_RjRKNS_5ctypeIcEE
_ZNKSt6__ndk18time_getIcNS_19istreambuf_iteratorIcNS_11char_traitsIcEEEEE11do_get_yearES4_S4_RNS_8ios_baseERjP2tm
_ZNKSt6__ndk18time_getIcNS_19istreambuf_iteratorIcNS_11char_traitsIcEEEEE10__get_yearERiRS4_S4_RjRKNS_5ctypeIcEE
_ZNKSt6__ndk18time_getIcNS_19istreambuf_iteratorIcNS_11char_traitsIcEEEEE6do_getES4_S4_RNS_8ios_baseERjP2tmcc
_ZNKSt6__ndk18time_getIcNS_19istreambuf_iteratorIcNS_11char_traitsIcEEEEE17__get_white_spaceERS4_S4_RjRKNS_5ctypeIcEE
_ZNKSt6__ndk18time_getIcNS_19istreambuf_iteratorIcNS_11char_traitsIcEEEEE13__get_percentERS4_S4_RjRKNS_5ctypeIcEE
_ZNKSt6__ndk18time_getIcNS_19istreambuf_iteratorIcNS_11char_traitsIcEEEEE9__get_dayERiRS4_S4_RjRKNS_5ctypeIcEE
_ZNKSt6__ndk18time_getIcNS_19istreambuf_iteratorIcNS_11char_traitsIcEEEEE10__get_hourERiRS4_S4_RjRKNS_5ctypeIcEE
_ZNKSt6__ndk18time_getIcNS_19istreambuf_iteratorIcNS_11char_traitsIcEEEEE13__get_12_hourERiRS4_S4_RjRKNS_5ctypeIcEE
_ZNKSt6__ndk18time_getIcNS_19istreambuf_iteratorIcNS_11char_traitsIcEEEEE18__get_day_year_numERiRS4_S4_RjRKNS_5ctypeIcEE
_ZNKSt6__ndk18time_getIcNS_19istreambuf_iteratorIcNS_11char_traitsIcEEEEE11__get_monthERiRS4_S4_RjRKNS_5ctypeIcEE
_ZNKSt6__ndk18time_getIcNS_19istreambuf_iteratorIcNS_11char_traitsIcEEEEE12__get_minuteERiRS4_S4_RjRKNS_5ctypeIcEE
_ZNKSt6__ndk18time_getIcNS_19istreambuf_iteratorIcNS_11char_traitsIcEEEEE11__get_am_pmERiRS4_S4_RjRKNS_5ctypeIcEE
_ZNKSt6__ndk18time_getIcNS_19istreambuf_iteratorIcNS_11char_traitsIcEEEEE12__get_secondERiRS4_S4_RjRKNS_5ctypeIcEE
_ZNKSt6__ndk18time_getIcNS_19istreambuf_iteratorIcNS_11char_traitsIcEEEEE13__get_weekdayERiRS4_S4_RjRKNS_5ctypeIcEE
_ZNKSt6__ndk18time_getIcNS_19istreambuf_iteratorIcNS_11char_traitsIcEEEEE11__get_year4ERiRS4_S4_RjRKNS_5ctypeIcEE
_ZNKSt6__ndk18time_getIwNS_19istreambuf_iteratorIwNS_11char_traitsIwEEEEE3getES4_S4_RNS_8ios_baseERjP2tmPKwSC_
_ZNKSt6__ndk18time_getIwNS_19istreambuf_iteratorIwNS_11char_traitsIwEEEEE13do_date_orderEv
_ZNKSt6__ndk18time_getIwNS_19istreambuf_iteratorIwNS_11char_traitsIwEEEEE11do_get_timeES4_S4_RNS_8ios_baseERjP2tm
_ZNKSt6__ndk18time_getIwNS_19istreambuf_iteratorIwNS_11char_traitsIwEEEEE11do_get_dateES4_S4_RNS_8ios_baseERjP2tm
_ZNKSt6__ndk18time_getIwNS_19istreambuf_iteratorIwNS_11char_traitsIwEEEEE14do_get_weekdayES4_S4_RNS_8ios_baseERjP2tm
_ZNKSt6__ndk18time_getIwNS_19istreambuf_iteratorIwNS_11char_traitsIwEEEEE17__get_weekdaynameERiRS4_S4_RjRKNS_5ctypeIwEE
_ZNKSt6__ndk18time_getIwNS_19istreambuf_iteratorIwNS_11char_traitsIwEEEEE16do_get_monthnameES4_S4_RNS_8ios_baseERjP2tm
_ZNKSt6__ndk18time_getIwNS_19istreambuf_iteratorIwNS_11char_traitsIwEEEEE15__get_monthnameERiRS4_S4_RjRKNS_5ctypeIwEE
_ZNKSt6__ndk18time_getIwNS_19istreambuf_iteratorIwNS_11char_traitsIwEEEEE11do_get_yearES4_S4_RNS_8ios_baseERjP2tm
_ZNKSt6__ndk18time_getIwNS_19istreambuf_iteratorIwNS_11char_traitsIwEEEEE10__get_yearERiRS4_S4_RjRKNS_5ctypeIwEE
_ZNKSt6__ndk18time_getIwNS_19istreambuf_iteratorIwNS_11char_traitsIwEEEEE6do_getES4_S4_RNS_8ios_baseERjP2tmcc
_ZNKSt6__ndk18time_getIwNS_19istreambuf_iteratorIwNS_11char_traitsIwEEEEE17__get_white_spaceERS4_S4_RjRKNS_5ctypeIwEE
_ZNKSt6__ndk18time_getIwNS_19istreambuf_iteratorIwNS_11char_traitsIwEEEEE13__get_percentERS4_S4_RjRKNS_5ctypeIwEE
_ZNKSt6__ndk18time_getIwNS_19istreambuf_iteratorIwNS_11char_traitsIwEEEEE9__get_dayERiRS4_S4_RjRKNS_5ctypeIwEE
_ZNKSt6__ndk18time_getIwNS_19istreambuf_iteratorIwNS_11char_traitsIwEEEEE10__get_hourERiRS4_S4_RjRKNS_5ctypeIwEE
_ZNKSt6__ndk18time_getIwNS_19istreambuf_iteratorIwNS_11char_traitsIwEEEEE13__get_12_hourERiRS4_S4_RjRKNS_5ctypeIwEE
_ZNKSt6__ndk18time_getIwNS_19istreambuf_iteratorIwNS_11char_traitsIwEEEEE18__get_day_year_numERiRS4_S4_RjRKNS_5ctypeIwEE
_ZNKSt6__ndk18time_getIwNS_19istreambuf_iteratorIwNS_11char_traitsIwEEEEE11__get_monthERiRS4_S4_RjRKNS_5ctypeIwEE
_ZNKSt6__ndk18time_getIwNS_19istreambuf_iteratorIwNS_11char_traitsIwEEEEE12__get_minuteERiRS4_S4_RjRKNS_5ctypeIwEE
_ZNKSt6__ndk18time_getIwNS_19istreambuf_iteratorIwNS_11char_traitsIwEEEEE11__get_am_pmERiRS4_S4_RjRKNS_5ctypeIwEE
_ZNKSt6__ndk18time_getIwNS_19istreambuf_iteratorIwNS_11char_traitsIwEEEEE12__get_secondERiRS4_S4_RjRKNS_5ctypeIwEE
_ZNKSt6__ndk18time_getIwNS_19istreambuf_iteratorIwNS_11char_traitsIwEEEEE13__get_weekdayERiRS4_S4_RjRKNS_5ctypeIwEE
_ZNKSt6__ndk18time_getIwNS_19istreambuf_iteratorIwNS_11char_traitsIwEEEEE11__get_year4ERiRS4_S4_RjRKNS_5ctypeIwEE
_ZNKSt6__ndk18time_putIcNS_19ostreambuf_iteratorIcNS_11char_traitsIcEEEEE3putES4_RNS_8ios_baseEcPK2tmPKcSC_
_ZNKSt6__ndk18time_putIcNS_19ostreambuf_iteratorIcNS_11char_traitsIcEEEEE6do_putES4_RNS_8ios_baseEcPK2tmcc
strftime_l
_ZNKSt6__ndk110__time_put8__do_putEPcRS1_PK2tmcc
_ZNKSt6__ndk18time_putIwNS_19ostreambuf_iteratorIwNS_11char_traitsIwEEEEE3putES4_RNS_8ios_baseEwPK2tmPKwSC_
_ZNKSt6__ndk18time_putIwNS_19ostreambuf_iteratorIwNS_11char_traitsIwEEEEE6do_putES4_RNS_8ios_baseEwPK2tmcc
_ZNKSt6__ndk110__time_put8__do_putEPwRS1_PK2tmcc
mbsrtowcs
_ZNSt6__ndk121__throw_runtime_errorEPKc
_ZNKSt6__ndk110moneypunctIcLb0EE16do_decimal_pointEv
_ZNKSt6__ndk110moneypunctIcLb0EE16do_thousands_sepEv
_ZNKSt6__ndk110moneypunctIcLb0EE11do_groupingEv
_ZNKSt6__ndk110moneypunctIcLb0EE14do_curr_symbolEv
_ZNKSt6__ndk110moneypunctIcLb0EE16do_positive_signEv
_ZNKSt6__ndk110moneypunctIcLb0EE16do_negative_signEv
_ZNKSt6__ndk110moneypunctIcLb0EE14do_frac_digitsEv
_ZNKSt6__ndk110moneypunctIcLb0EE13do_pos_formatEv
_ZNKSt6__ndk110moneypunctIcLb0EE13do_neg_formatEv
_ZNKSt6__ndk110moneypunctIcLb1EE16do_decimal_pointEv
_ZNKSt6__ndk110moneypunctIcLb1EE16do_thousands_sepEv
_ZNKSt6__ndk110moneypunctIcLb1EE11do_groupingEv
_ZNKSt6__ndk110moneypunctIcLb1EE14do_curr_symbolEv
_ZNKSt6__ndk110moneypunctIcLb1EE16do_positive_signEv
_ZNKSt6__ndk110moneypunctIcLb1EE16do_negative_signEv
_ZNKSt6__ndk110moneypunctIcLb1EE14do_frac_digitsEv
_ZNKSt6__ndk110moneypunctIcLb1EE13do_pos_formatEv
_ZNKSt6__ndk110moneypunctIcLb1EE13do_neg_formatEv
_ZNKSt6__ndk110moneypunctIwLb0EE16do_decimal_pointEv
_ZNKSt6__ndk110moneypunctIwLb0EE16do_thousands_sepEv
_ZNKSt6__ndk110moneypunctIwLb0EE11do_groupingEv
_ZNKSt6__ndk110moneypunctIwLb0EE14do_curr_symbolEv
_ZNKSt6__ndk110moneypunctIwLb0EE16do_positive_signEv
_ZNKSt6__ndk110moneypunctIwLb0EE16do_negative_signEv
_ZNKSt6__ndk110moneypunctIwLb0EE14do_frac_digitsEv
_ZNKSt6__ndk110moneypunctIwLb0EE13do_pos_formatEv
_ZNKSt6__ndk110moneypunctIwLb0EE13do_neg_formatEv
_ZNKSt6__ndk110moneypunctIwLb1EE16do_decimal_pointEv
_ZNKSt6__ndk110moneypunctIwLb1EE16do_thousands_sepEv
_ZNKSt6__ndk110moneypunctIwLb1EE11do_groupingEv
_ZNKSt6__ndk110moneypunctIwLb1EE14do_curr_symbolEv
_ZNKSt6__ndk110moneypunctIwLb1EE16do_positive_signEv
_ZNKSt6__ndk110moneypunctIwLb1EE16do_negative_signEv
_ZNKSt6__ndk110moneypunctIwLb1EE14do_frac_digitsEv
_ZNKSt6__ndk110moneypunctIwLb1EE13do_pos_formatEv
_ZNKSt6__ndk110moneypunctIwLb1EE13do_neg_formatEv
_ZNKSt6__ndk117moneypunct_bynameIcLb0EE16do_decimal_pointEv
_ZNKSt6__ndk117moneypunct_bynameIcLb0EE16do_thousands_sepEv
_ZNKSt6__ndk117moneypunct_bynameIcLb0EE11do_groupingEv
_ZNKSt6__ndk117moneypunct_bynameIcLb0EE14do_curr_symbolEv
_ZNKSt6__ndk117moneypunct_bynameIcLb0EE16do_positive_signEv
_ZNKSt6__ndk117moneypunct_bynameIcLb0EE16do_negative_signEv
_ZNKSt6__ndk117moneypunct_bynameIcLb0EE14do_frac_digitsEv
_ZNKSt6__ndk117moneypunct_bynameIcLb0EE13do_pos_formatEv
_ZNKSt6__ndk117moneypunct_bynameIcLb0EE13do_neg_formatEv
_ZNKSt6__ndk117moneypunct_bynameIcLb1EE16do_decimal_pointEv
_ZNKSt6__ndk117moneypunct_bynameIcLb1EE16do_thousands_sepEv
_ZNKSt6__ndk117moneypunct_bynameIcLb1EE11do_groupingEv
_ZNKSt6__ndk117moneypunct_bynameIcLb1EE14do_curr_symbolEv
_ZNKSt6__ndk117moneypunct_bynameIcLb1EE16do_positive_signEv
_ZNKSt6__ndk117moneypunct_bynameIcLb1EE16do_negative_signEv
_ZNKSt6__ndk117moneypunct_bynameIcLb1EE14do_frac_digitsEv
_ZNKSt6__ndk117moneypunct_bynameIcLb1EE13do_pos_formatEv
_ZNKSt6__ndk117moneypunct_bynameIcLb1EE13do_neg_formatEv
_ZNKSt6__ndk117moneypunct_bynameIwLb0EE16do_decimal_pointEv
_ZNKSt6__ndk117moneypunct_bynameIwLb0EE16do_thousands_sepEv
_ZNKSt6__ndk117moneypunct_bynameIwLb0EE11do_groupingEv
_ZNKSt6__ndk117moneypunct_bynameIwLb0EE14do_curr_symbolEv
_ZNSt6__ndk112basic_stringIwNS_11char_traitsIwEENS_9allocatorIwEEEC1ERKS5_
_ZNKSt6__ndk117moneypunct_bynameIwLb0EE16do_positive_signEv
_ZNKSt6__ndk117moneypunct_bynameIwLb0EE16do_negative_signEv
_ZNKSt6__ndk117moneypunct_bynameIwLb0EE14do_frac_digitsEv
_ZNKSt6__ndk117moneypunct_bynameIwLb0EE13do_pos_formatEv
_ZNKSt6__ndk117moneypunct_bynameIwLb0EE13do_neg_formatEv
_ZNKSt6__ndk117moneypunct_bynameIwLb1EE16do_decimal_pointEv
_ZNKSt6__ndk117moneypunct_bynameIwLb1EE16do_thousands_sepEv
_ZNKSt6__ndk117moneypunct_bynameIwLb1EE11do_groupingEv
_ZNKSt6__ndk117moneypunct_bynameIwLb1EE14do_curr_symbolEv
_ZNKSt6__ndk117moneypunct_bynameIwLb1EE16do_positive_signEv
_ZNKSt6__ndk117moneypunct_bynameIwLb1EE16do_negative_signEv
_ZNKSt6__ndk117moneypunct_bynameIwLb1EE14do_frac_digitsEv
_ZNKSt6__ndk117moneypunct_bynameIwLb1EE13do_pos_formatEv
_ZNKSt6__ndk117moneypunct_bynameIwLb1EE13do_neg_formatEv
_ZNKSt6__ndk19money_getIcNS_19istreambuf_iteratorIcNS_11char_traitsIcEEEEE6do_getES4_S4_bRNS_8ios_baseERjRe
_ZNSt6__ndk112__do_nothingEPv
_ZNSt6__ndk19money_getIcNS_19istreambuf_iteratorIcNS_11char_traitsIcEEEEE8__do_getERS4_S4_bRKNS_6localeEjRjRbRKNS_5ctypeIcEERNS_10unique_ptrIcPFvPvEEERPcSM_
_ZNSt6__ndk111__money_getIcE13__gather_infoEbRKNS_6localeERNS_10money_base7patternERcS8_RNS_12basic_stringIcNS_11char_traitsIcEENS_9allocatorIcEEEESF_SF_SF_Ri
_ZNSt13runtime_errorC1EPKc
_ZTISt13runtime_error
_ZNSt13runtime_errorD1Ev
_ZNKSt6__ndk19money_getIcNS_19istreambuf_iteratorIcNS_11char_traitsIcEEEEE6do_getES4_S4_bRNS_8ios_baseERjRNS_12basic_stringIcS3_NS_9allocatorIcEEEE
_ZNSt6__ndk112basic_stringIcNS_11char_traitsIcEENS_9allocatorIcEEE23__append_forward_unsafeIPcEERS5_T_S9_
_ZNSt6__ndk110moneypunctIcLb1EE2idE
_ZNSt6__ndk110moneypunctIcLb0EE2idE
_ZNSt6__ndk116__check_groupingERKNS_12basic_stringIcNS_11char_traitsIcEENS_9allocatorIcEEEEPjS8_Rj
_ZNKSt6__ndk19money_getIwNS_19istreambuf_iteratorIwNS_11char_traitsIwEEEEE6do_getES4_S4_bRNS_8ios_baseERjRe
_ZNSt6__ndk19money_getIwNS_19istreambuf_iteratorIwNS_11char_traitsIwEEEEE8__do_getERS4_S4_bRKNS_6localeEjRjRbRKNS_5ctypeIwEERNS_10unique_ptrIwPFvPvEEERPwSM_
_ZNSt6__ndk111__money_getIwE13__gather_infoEbRKNS_6localeERNS_10money_base7patternERwS8_RNS_12basic_stringIcNS_11char_traitsIcEENS_9allocatorIcEEEERNS9_IwNSA_IwEENSC_IwEEEESJ_SJ_Ri
_ZNSt6__ndk112basic_stringIwNS_11char_traitsIwEENS_9allocatorIwEEE9push_backEw
_ZNKSt6__ndk19money_getIwNS_19istreambuf_iteratorIwNS_11char_traitsIwEEEEE6do_getES4_S4_bRNS_8ios_baseERjRNS_12basic_stringIwS3_NS_9allocatorIwEEEE
_ZNSt6__ndk112basic_stringIwNS_11char_traitsIwEENS_9allocatorIwEEE23__append_forward_unsafeIPwEERS5_T_S9_
_ZNSt6__ndk110moneypunctIwLb1EE2idE
_ZNSt6__ndk110moneypunctIwLb0EE2idE
_ZNKSt6__ndk19money_putIcNS_19ostreambuf_iteratorIcNS_11char_traitsIcEEEEE6do_putES4_bRNS_8ios_baseEce
_ZNSt6__ndk111__money_putIcE13__gather_infoEbbRKNS_6localeERNS_10money_base7patternERcS8_RNS_12basic_stringIcNS_11char_traitsIcEENS_9allocatorIcEEEESF_SF_Ri
_ZNSt6__ndk111__money_putIcE8__formatEPcRS2_S3_jPKcS5_RKNS_5ctypeIcEEbRKNS_10money_base7patternEccRKNS_12basic_stringIcNS_11char_traitsIcEENS_9allocatorIcEEEESL_SL_i
memmove
_ZNKSt6__ndk19money_putIcNS_19ostreambuf_iteratorIcNS_11char_traitsIcEEEEE6do_putES4_bRNS_8ios_baseEcRKNS_12basic_stringIcS3_NS_9allocatorIcEEEE
_ZNKSt6__ndk19money_putIwNS_19ostreambuf_iteratorIwNS_11char_traitsIwEEEEE6do_putES4_bRNS_8ios_baseEwe
_ZNSt6__ndk111__money_putIwE13__gather_infoEbbRKNS_6localeERNS_10money_base7patternERwS8_RNS_12basic_stringIcNS_11char_traitsIcEENS_9allocatorIcEEEERNS9_IwNSA_IwEENSC_IwEEEESJ_Ri
_ZNSt6__ndk111__money_putIwE8__formatEPwRS2_S3_jPKwS5_RKNS_5ctypeIwEEbRKNS_10money_base7patternEwwRKNS_12basic_stringIcNS_11char_traitsIcEENS_9allocatorIcEEEERKNSE_IwNSF_IwEENSH_IwEEEESQ_i
_ZNKSt6__ndk19money_putIwNS_19ostreambuf_iteratorIwNS_11char_traitsIwEEEEE6do_putES4_bRNS_8ios_baseEwRKNS_12basic_stringIwS3_NS_9allocatorIwEEEE
_ZNKSt6__ndk18messagesIcE7do_openERKNS_12basic_stringIcNS_11char_traitsIcEENS_9allocatorIcEEEERKNS_6localeE
_ZNKSt6__ndk18messagesIcE6do_getEliiRKNS_12basic_stringIcNS_11char_traitsIcEENS_9allocatorIcEEEE
_ZNKSt6__ndk18messagesIcE8do_closeEl
_ZNKSt6__ndk18messagesIwE7do_openERKNS_12basic_stringIcNS_11char_traitsIcEENS_9allocatorIcEEEERKNS_6localeE
_ZNKSt6__ndk18messagesIwE6do_getEliiRKNS_12basic_stringIwNS_11char_traitsIwEENS_9allocatorIwEEEE
_ZNKSt6__ndk18messagesIwE8do_closeEl
_ZNSt6__ndk114codecvt_bynameIcc9mbstate_tED2Ev
_ZNSt6__ndk114codecvt_bynameIcc9mbstate_tED0Ev
_ZNSt6__ndk114codecvt_bynameIwc9mbstate_tED2Ev
_ZNSt6__ndk17codecvtIwc9mbstate_tED2Ev
_ZNSt6__ndk114codecvt_bynameIwc9mbstate_tED0Ev
_ZNSt6__ndk114codecvt_bynameIDsc9mbstate_tED2Ev
_ZNSt6__ndk114codecvt_bynameIDsc9mbstate_tED0Ev
_ZNSt6__ndk114codecvt_bynameIDic9mbstate_tED2Ev
_ZNSt6__ndk114codecvt_bynameIDic9mbstate_tED0Ev
_ZTVNSt6__ndk17collateIcEE
_ZTVNSt6__ndk17collateIwEE
_ZTVNSt6__ndk15ctypeIcEE
_ZTVNSt6__ndk15ctypeIwEE
_ZTVNSt6__ndk17codecvtIcc9mbstate_tEE
_ZTVNSt6__ndk17codecvtIwc9mbstate_tEE
_ZTVNSt6__ndk17codecvtIDsc9mbstate_tEE
_ZTVNSt6__ndk17codecvtIDic9mbstate_tEE
_ZTVNSt6__ndk18numpunctIcEE
_ZTVNSt6__ndk18numpunctIwEE
_ZTVNSt6__ndk17num_getIcNS_19istreambuf_iteratorIcNS_11char_traitsIcEEEEEE
_ZTVNSt6__ndk17num_getIwNS_19istreambuf_iteratorIwNS_11char_traitsIwEEEEEE
_ZTVNSt6__ndk17num_putIcNS_19ostreambuf_iteratorIcNS_11char_traitsIcEEEEEE
_ZTVNSt6__ndk17num_putIwNS_19ostreambuf_iteratorIwNS_11char_traitsIwEEEEEE
_ZTVNSt6__ndk110moneypunctIcLb0EEE
_ZTVNSt6__ndk110moneypunctIcLb1EEE
_ZTVNSt6__ndk110moneypunctIwLb0EEE
_ZTVNSt6__ndk110moneypunctIwLb1EEE
_ZTVNSt6__ndk19money_getIcNS_19istreambuf_iteratorIcNS_11char_traitsIcEEEEEE
_ZTVNSt6__ndk19money_getIwNS_19istreambuf_iteratorIwNS_11char_traitsIwEEEEEE
_ZTVNSt6__ndk19money_putIcNS_19ostreambuf_iteratorIcNS_11char_traitsIcEEEEEE
_ZTVNSt6__ndk19money_putIwNS_19ostreambuf_iteratorIwNS_11char_traitsIwEEEEEE
_ZTVNSt6__ndk18time_getIcNS_19istreambuf_iteratorIcNS_11char_traitsIcEEEEEE
_ZTVNSt6__ndk18time_getIwNS_19istreambuf_iteratorIwNS_11char_traitsIwEEEEEE
_ZTVNSt6__ndk16locale5facetE
_ZTVNSt6__ndk18time_putIcNS_19ostreambuf_iteratorIcNS_11char_traitsIcEEEEEE
_ZTVNSt6__ndk18time_putIwNS_19ostreambuf_iteratorIwNS_11char_traitsIwEEEEEE
_ZTVNSt6__ndk18messagesIcEE
_ZTVNSt6__ndk18messagesIwEE
_ZNSt6__ndk17collateIcE2idE
_ZNSt6__ndk114__shared_count12__add_sharedEv
_ZNSt6__ndk17collateIwE2idE
_ZNSt6__ndk17codecvtIwc9mbstate_tE2idE
_ZNSt6__ndk17codecvtIDsc9mbstate_tE2idE
_ZNSt6__ndk17codecvtIDic9mbstate_tE2idE
_ZNSt6__ndk19money_getIcNS_19istreambuf_iteratorIcNS_11char_traitsIcEEEEE2idE
_ZNSt6__ndk19money_getIwNS_19istreambuf_iteratorIwNS_11char_traitsIwEEEEE2idE
_ZNSt6__ndk19money_putIcNS_19ostreambuf_iteratorIcNS_11char_traitsIcEEEEE2idE
_ZNSt6__ndk19money_putIwNS_19ostreambuf_iteratorIwNS_11char_traitsIwEEEEE2idE
_ZNSt6__ndk18time_getIcNS_19istreambuf_iteratorIcNS_11char_traitsIcEEEEE2idE
_ZNSt6__ndk18time_getIwNS_19istreambuf_iteratorIwNS_11char_traitsIwEEEEE2idE
_ZNSt6__ndk18time_putIcNS_19ostreambuf_iteratorIcNS_11char_traitsIcEEEEE2idE
_ZNSt6__ndk18time_putIwNS_19ostreambuf_iteratorIwNS_11char_traitsIwEEEEE2idE
_ZNSt6__ndk18messagesIcE2idE
_ZNSt6__ndk18messagesIwE2idE
_ZNSt6__ndk114collate_bynameIcEC2ERKNS_12basic_stringIcNS_11char_traitsIcEENS_9allocatorIcEEEEm
_ZNSt6__ndk114collate_bynameIwEC2ERKNS_12basic_stringIcNS_11char_traitsIcEENS_9allocatorIcEEEEm
_ZNSt6__ndk112ctype_bynameIcEC2ERKNS_12basic_stringIcNS_11char_traitsIcEENS_9allocatorIcEEEEm
_ZNSt6__ndk112ctype_bynameIwEC2ERKNS_12basic_stringIcNS_11char_traitsIcEENS_9allocatorIcEEEEm
_ZTVNSt6__ndk114codecvt_bynameIcc9mbstate_tEE
_ZNSt6__ndk17codecvtIwc9mbstate_tEC2EPKcm
_ZTVNSt6__ndk114codecvt_bynameIwc9mbstate_tEE
_ZTVNSt6__ndk114codecvt_bynameIDsc9mbstate_tEE
_ZTVNSt6__ndk114codecvt_bynameIDic9mbstate_tEE
_ZTVNSt6__ndk115numpunct_bynameIcEE
_ZNSt6__ndk115numpunct_bynameIcE6__initEPKc
_ZTVNSt6__ndk115numpunct_bynameIwEE
_ZNSt6__ndk115numpunct_bynameIwE6__initEPKc
_ZNSt6__ndk118__time_get_storageIcEC2ERKNS_12basic_stringIcNS_11char_traitsIcEENS_9allocatorIcEEEE
_ZTVNSt6__ndk115time_get_bynameIcNS_19istreambuf_iteratorIcNS_11char_traitsIcEEEEEE
_ZNSt6__ndk118__time_get_storageIwEC2ERKNS_12basic_stringIcNS_11char_traitsIcEENS_9allocatorIcEEEE
_ZTVNSt6__ndk115time_get_bynameIwNS_19istreambuf_iteratorIwNS_11char_traitsIwEEEEEE
_ZTVNSt6__ndk115time_put_bynameIcNS_19ostreambuf_iteratorIcNS_11char_traitsIcEEEEEE
_ZTVNSt6__ndk115time_put_bynameIwNS_19ostreambuf_iteratorIwNS_11char_traitsIwEEEEEE
_ZTVNSt6__ndk115messages_bynameIcEE
_ZTVNSt6__ndk115messages_bynameIwEE
_ZNSt6__ndk18numpunctIwED2Ev
_ZNSt6__ndk18numpunctIcED2Ev
_ZNSt6__ndk16locale7classicEv
_ZTVNSt6__ndk117moneypunct_bynameIcLb0EEE
_ZNSt6__ndk117moneypunct_bynameIcLb0EE4initEPKc
_ZTVNSt6__ndk117moneypunct_bynameIcLb1EEE
_ZNSt6__ndk117moneypunct_bynameIcLb1EE4initEPKc
_ZTVNSt6__ndk117moneypunct_bynameIwLb0EEE
_ZNSt6__ndk117moneypunct_bynameIwLb0EE4initEPKc
_ZTVNSt6__ndk117moneypunct_bynameIwLb1EEE
_ZNSt6__ndk117moneypunct_bynameIwLb1EE4initEPKc
_ZNSt8bad_castC1Ev
_ZTISt8bad_cast
_ZNSt8bad_castD1Ev
_ZNSt6__ndk16locale8__globalEv
_ZNSt6__ndk16localeC2Ev
_ZNSt6__ndk16localeC2ERKS0_
_ZNSt6__ndk16localeD2Ev
_ZNSt6__ndk16localeC2EPKc
_ZNSt6__ndk16localeC2ERKNS_12basic_stringIcNS_11char_traitsIcEENS_9allocatorIcEEEE
_ZNSt6__ndk16localeC2ERKS0_PKci
_ZNSt6__ndk16localeC2ERKS0_RKNS_12basic_stringIcNS_11char_traitsIcEENS_9allocatorIcEEEEi
_ZNSt6__ndk16localeC2ERKS0_S2_i
_ZNKSt6__ndk16locale4nameEv
_ZNSt6__ndk16locale14__install_ctorERKS0_PNS0_5facetEl
_ZNSt6__ndk16locale6globalERKS0_
_ZNKSt6__ndk112basic_stringIcNS_11char_traitsIcEENS_9allocatorIcEEE7compareEmmPKcm
setlocale
_ZNSt6__ndk16locale2id5__getEv
_ZNKSt6__ndk16localeeqERKS0_
_ZNSt6__ndk16locale5facetD0Ev
_ZNSt6__ndk16locale5facet16__on_zero_sharedEv
_ZNSt6__ndk16locale2id9__next_idE
_ZNSt6__ndk114collate_bynameIcEC2EPKcm
_ZTVNSt6__ndk114collate_bynameIcEE
_ZNSt6__ndk112basic_stringIcNS_11char_traitsIcEENS_9allocatorIcEEE6insertEmPKc
_ZNSt13runtime_errorC1ERKNSt6__ndk112basic_stringIcNS0_11char_traitsIcEENS0_9allocatorIcEEEE
_ZNSt6__ndk1plIcNS_11char_traitsIcEENS_9allocatorIcEEEENS_12basic_stringIT_T0_T1_EEPKS6_RKS9_
_ZNSt6__ndk114collate_bynameIcED2Ev
freelocale
_ZNSt6__ndk114collate_bynameIcED0Ev
_ZNKSt6__ndk114collate_bynameIcE10do_compareEPKcS3_S3_S3_
strcoll_l
_ZNKSt6__ndk114collate_bynameIcE12do_transformEPKcS3_
strxfrm_l
_ZNSt6__ndk114collate_bynameIwEC2EPKcm
_ZTVNSt6__ndk114collate_bynameIwEE
_ZNSt6__ndk114collate_bynameIwED2Ev
_ZNSt6__ndk114collate_bynameIwED0Ev
_ZNKSt6__ndk114collate_bynameIwE10do_compareEPKwS3_S3_S3_
wcscoll_l
_ZNKSt6__ndk114collate_bynameIwE12do_transformEPKwS3_
wcsxfrm_l
_ZNSt6__ndk15ctypeIwED0Ev
_ZNKSt6__ndk15ctypeIwE5do_isEmw
_ZNSt6__ndk15ctypeIcE13classic_tableEv
_ZNKSt6__ndk15ctypeIwE5do_isEPKwS3_Pm
_ZNKSt6__ndk15ctypeIwE10do_scan_isEmPKwS3_
_ZNKSt6__ndk15ctypeIwE11do_scan_notEmPKwS3_
_ZNKSt6__ndk15ctypeIwE10do_toupperEw
iswlower_l
_ZNKSt6__ndk15ctypeIwE10do_toupperEPwPKw
islower_l
_ZNKSt6__ndk15ctypeIwE10do_tolowerEw
isupper_l
_ZNKSt6__ndk15ctypeIwE10do_tolowerEPwPKw
_ZNKSt6__ndk15ctypeIwE8do_widenEc
_ZNKSt6__ndk15ctypeIwE8do_widenEPKcS3_Pw
_ZNKSt6__ndk15ctypeIwE9do_narrowEwc
_ZNKSt6__ndk15ctypeIwE9do_narrowEPKwS3_cPc
_ZNSt6__ndk15ctypeIcEC2EPKmbm
_ZNSt6__ndk15ctypeIcED2Ev
_ZNSt6__ndk15ctypeIcED0Ev
_ZNKSt6__ndk15ctypeIcE10do_toupperEc
_ZNKSt6__ndk15ctypeIcE10do_toupperEPcPKc
_ZNKSt6__ndk15ctypeIcE10do_tolowerEc
_ZNKSt6__ndk15ctypeIcE10do_tolowerEPcPKc
_ZNKSt6__ndk15ctypeIcE8do_widenEc
_ZNKSt6__ndk15ctypeIcE8do_widenEPKcS3_Pc
_ZNKSt6__ndk15ctypeIcE9do_narrowEcc
_ZNKSt6__ndk15ctypeIcE9do_narrowEPKcS3_cPc
_ZNSt6__ndk112ctype_bynameIcEC2EPKcm
_ZTVNSt6__ndk112ctype_bynameIcEE
_ZNSt6__ndk112ctype_bynameIcED0Ev
_ZNKSt6__ndk112ctype_bynameIcE10do_toupperEc
toupper_l
_ZNKSt6__ndk112ctype_bynameIcE10do_toupperEPcPKc
_ZNKSt6__ndk112ctype_bynameIcE10do_tolowerEc
tolower_l
_ZNKSt6__ndk112ctype_bynameIcE10do_tolowerEPcPKc
_ZNSt6__ndk112ctype_bynameIwEC2EPKcm
_ZTVNSt6__ndk112ctype_bynameIwEE
_ZNSt6__ndk112ctype_bynameIwED0Ev
_ZNSt6__ndk16locale5facetD2Ev
_ZNKSt6__ndk112ctype_bynameIwE5do_isEmw
iswspace_l
iswprint_l
iswblank_l
iswcntrl_l
iswupper_l
iswalpha_l
iswdigit_l
iswpunct_l
iswxdigit_l
_ZNKSt6__ndk112ctype_bynameIwE5do_isEPKwS3_Pm
_ZNKSt6__ndk112ctype_bynameIwE10do_scan_isEmPKwS3_
_ZNKSt6__ndk112ctype_bynameIwE11do_scan_notEmPKwS3_
_ZNKSt6__ndk112ctype_bynameIwE10do_toupperEw
towupper_l
_ZNKSt6__ndk112ctype_bynameIwE10do_toupperEPwPKw
_ZNKSt6__ndk112ctype_bynameIwE10do_tolowerEw
towlower_l
_ZNKSt6__ndk112ctype_bynameIwE10do_tolowerEPwPKw
_ZNKSt6__ndk112ctype_bynameIwE8do_widenEc
btowc
_ZNKSt6__ndk112ctype_bynameIwE8do_widenEPKcS3_Pw
_ZNKSt6__ndk112ctype_bynameIwE9do_narrowEwc
wctob
_ZNKSt6__ndk112ctype_bynameIwE9do_narrowEPKwS3_cPc
_ZNSt6__ndk17codecvtIcc9mbstate_tED0Ev
_ZNKSt6__ndk17codecvtIcc9mbstate_tE6do_outERS1_PKcS5_RS5_PcS7_RS7_
_ZNKSt6__ndk17codecvtIcc9mbstate_tE5do_inERS1_PKcS5_RS5_PcS7_RS7_
_ZNKSt6__ndk17codecvtIcc9mbstate_tE10do_unshiftERS1_PcS4_RS4_
_ZNKSt6__ndk17codecvtIcc9mbstate_tE11do_encodingEv
_ZNKSt6__ndk17codecvtIcc9mbstate_tE16do_always_noconvEv
_ZNKSt6__ndk17codecvtIcc9mbstate_tE9do_lengthERS1_PKcS5_m
_ZNKSt6__ndk17codecvtIcc9mbstate_tE13do_max_lengthEv
_ZNSt6__ndk17codecvtIwc9mbstate_tEC2Em
_ZNSt6__ndk17codecvtIwc9mbstate_tED0Ev
_ZNKSt6__ndk17codecvtIwc9mbstate_tE6do_outERS1_PKwS5_RS5_PcS7_RS7_
wcsnrtombs
wcrtomb
_ZNKSt6__ndk17codecvtIwc9mbstate_tE5do_inERS1_PKcS5_RS5_PwS7_RS7_
mbsnrtowcs
mbrtowc
_ZNKSt6__ndk17codecvtIwc9mbstate_tE10do_unshiftERS1_PcS4_RS4_
_ZNKSt6__ndk17codecvtIwc9mbstate_tE11do_encodingEv
mbtowc
__ctype_get_mb_cur_max
_ZNKSt6__ndk17codecvtIwc9mbstate_tE16do_always_noconvEv
_ZNKSt6__ndk17codecvtIwc9mbstate_tE9do_lengthERS1_PKcS5_m
mbrlen
_ZNKSt6__ndk17codecvtIwc9mbstate_tE13do_max_lengthEv
_ZNSt6__ndk17codecvtIDsc9mbstate_tED0Ev
_ZNKSt6__ndk17codecvtIDsc9mbstate_tE6do_outERS1_PKDsS5_RS5_PcS7_RS7_
_ZNKSt6__ndk17codecvtIDsc9mbstate_tE5do_inERS1_PKcS5_RS5_PDsS7_RS7_
_ZNKSt6__ndk17codecvtIDsc9mbstate_tE10do_unshiftERS1_PcS4_RS4_
_ZNKSt6__ndk17codecvtIDsc9mbstate_tE11do_encodingEv
_ZNKSt6__ndk17codecvtIDsc9mbstate_tE16do_always_noconvEv
_ZNKSt6__ndk17codecvtIDsc9mbstate_tE9do_lengthERS1_PKcS5_m
_ZNKSt6__ndk17codecvtIDsc9mbstate_tE13do_max_lengthEv
_ZNSt6__ndk17codecvtIDic9mbstate_tED0Ev
_ZNKSt6__ndk17codecvtIDic9mbstate_tE6do_outERS1_PKDiS5_RS5_PcS7_RS7_
_ZNKSt6__ndk17codecvtIDic9mbstate_tE5do_inERS1_PKcS5_RS5_PDiS7_RS7_
_ZNKSt6__ndk17codecvtIDic9mbstate_tE10do_unshiftERS1_PcS4_RS4_
_ZNKSt6__ndk17codecvtIDic9mbstate_tE11do_encodingEv
_ZNKSt6__ndk17codecvtIDic9mbstate_tE16do_always_noconvEv
_ZNKSt6__ndk17codecvtIDic9mbstate_tE9do_lengthERS1_PKcS5_m
_ZNKSt6__ndk17codecvtIDic9mbstate_tE13do_max_lengthEv
_ZNKSt6__ndk114__codecvt_utf8IwE6do_outER9mbstate_tPKwS5_RS5_PcS7_RS7_
_ZNKSt6__ndk114__codecvt_utf8IwE5do_inER9mbstate_tPKcS5_RS5_PwS7_RS7_
_ZNKSt6__ndk114__codecvt_utf8IwE10do_unshiftER9mbstate_tPcS4_RS4_
_ZNKSt6__ndk114__codecvt_utf8IwE11do_encodingEv
_ZNKSt6__ndk114__codecvt_utf8IwE16do_always_noconvEv
_ZNKSt6__ndk114__codecvt_utf8IwE9do_lengthER9mbstate_tPKcS5_m
_ZNKSt6__ndk114__codecvt_utf8IwE13do_max_lengthEv
_ZNKSt6__ndk114__codecvt_utf8IDsE6do_outER9mbstate_tPKDsS5_RS5_PcS7_RS7_
_ZNKSt6__ndk114__codecvt_utf8IDsE5do_inER9mbstate_tPKcS5_RS5_PDsS7_RS7_
_ZNKSt6__ndk114__codecvt_utf8IDsE10do_unshiftER9mbstate_tPcS4_RS4_
_ZNKSt6__ndk114__codecvt_utf8IDsE11do_encodingEv
_ZNKSt6__ndk114__codecvt_utf8IDsE16do_always_noconvEv
_ZNKSt6__ndk114__codecvt_utf8IDsE9do_lengthER9mbstate_tPKcS5_m
_ZNKSt6__ndk114__codecvt_utf8IDsE13do_max_lengthEv
_ZNKSt6__ndk114__codecvt_utf8IDiE6do_outER9mbstate_tPKDiS5_RS5_PcS7_RS7_
_ZNKSt6__ndk114__codecvt_utf8IDiE5do_inER9mbstate_tPKcS5_RS5_PDiS7_RS7_
_ZNKSt6__ndk114__codecvt_utf8IDiE10do_unshiftER9mbstate_tPcS4_RS4_
_ZNKSt6__ndk114__codecvt_utf8IDiE11do_encodingEv
_ZNKSt6__ndk114__codecvt_utf8IDiE16do_always_noconvEv
_ZNKSt6__ndk114__codecvt_utf8IDiE9do_lengthER9mbstate_tPKcS5_m
_ZNKSt6__ndk114__codecvt_utf8IDiE13do_max_lengthEv
_ZNKSt6__ndk115__codecvt_utf16IwLb0EE6do_outER9mbstate_tPKwS5_RS5_PcS7_RS7_
_ZNKSt6__ndk115__codecvt_utf16IwLb0EE5do_inER9mbstate_tPKcS5_RS5_PwS7_RS7_
_ZNKSt6__ndk115__codecvt_utf16IwLb0EE10do_unshiftER9mbstate_tPcS4_RS4_
_ZNKSt6__ndk115__codecvt_utf16IwLb0EE11do_encodingEv
_ZNKSt6__ndk115__codecvt_utf16IwLb0EE16do_always_noconvEv
_ZNKSt6__ndk115__codecvt_utf16IwLb0EE9do_lengthER9mbstate_tPKcS5_m
_ZNKSt6__ndk115__codecvt_utf16IwLb0EE13do_max_lengthEv
_ZNKSt6__ndk115__codecvt_utf16IwLb1EE6do_outER9mbstate_tPKwS5_RS5_PcS7_RS7_
_ZNKSt6__ndk115__codecvt_utf16IwLb1EE5do_inER9mbstate_tPKcS5_RS5_PwS7_RS7_
_ZNKSt6__ndk115__codecvt_utf16IwLb1EE10do_unshiftER9mbstate_tPcS4_RS4_
_ZNKSt6__ndk115__codecvt_utf16IwLb1EE11do_encodingEv
_ZNKSt6__ndk115__codecvt_utf16IwLb1EE16do_always_noconvEv
_ZNKSt6__ndk115__codecvt_utf16IwLb1EE9do_lengthER9mbstate_tPKcS5_m
_ZNKSt6__ndk115__codecvt_utf16IwLb1EE13do_max_lengthEv
_ZNKSt6__ndk115__codecvt_utf16IDsLb0EE6do_outER9mbstate_tPKDsS5_RS5_PcS7_RS7_
_ZNKSt6__ndk115__codecvt_utf16IDsLb0EE5do_inER9mbstate_tPKcS5_RS5_PDsS7_RS7_
_ZNKSt6__ndk115__codecvt_utf16IDsLb0EE10do_unshiftER9mbstate_tPcS4_RS4_
_ZNKSt6__ndk115__codecvt_utf16IDsLb0EE11do_encodingEv
_ZNKSt6__ndk115__codecvt_utf16IDsLb0EE16do_always_noconvEv
_ZNKSt6__ndk115__codecvt_utf16IDsLb0EE9do_lengthER9mbstate_tPKcS5_m
_ZNKSt6__ndk115__codecvt_utf16IDsLb0EE13do_max_lengthEv
_ZNKSt6__ndk115__codecvt_utf16IDsLb1EE6do_outER9mbstate_tPKDsS5_RS5_PcS7_RS7_
_ZNKSt6__ndk115__codecvt_utf16IDsLb1EE5do_inER9mbstate_tPKcS5_RS5_PDsS7_RS7_
_ZNKSt6__ndk115__codecvt_utf16IDsLb1EE10do_unshiftER9mbstate_tPcS4_RS4_
_ZNKSt6__ndk115__codecvt_utf16IDsLb1EE11do_encodingEv
_ZNKSt6__ndk115__codecvt_utf16IDsLb1EE16do_always_noconvEv
_ZNKSt6__ndk115__codecvt_utf16IDsLb1EE9do_lengthER9mbstate_tPKcS5_m
_ZNKSt6__ndk115__codecvt_utf16IDsLb1EE13do_max_lengthEv
_ZNKSt6__ndk115__codecvt_utf16IDiLb0EE6do_outER9mbstate_tPKDiS5_RS5_PcS7_RS7_
_ZNKSt6__ndk115__codecvt_utf16IDiLb0EE5do_inER9mbstate_tPKcS5_RS5_PDiS7_RS7_
_ZNKSt6__ndk115__codecvt_utf16IDiLb0EE10do_unshiftER9mbstate_tPcS4_RS4_
_ZNKSt6__ndk115__codecvt_utf16IDiLb0EE11do_encodingEv
_ZNKSt6__ndk115__codecvt_utf16IDiLb0EE16do_always_noconvEv
_ZNKSt6__ndk115__codecvt_utf16IDiLb0EE9do_lengthER9mbstate_tPKcS5_m
_ZNKSt6__ndk115__codecvt_utf16IDiLb0EE13do_max_lengthEv
_ZNKSt6__ndk115__codecvt_utf16IDiLb1EE6do_outER9mbstate_tPKDiS5_RS5_PcS7_RS7_
_ZNKSt6__ndk115__codecvt_utf16IDiLb1EE5do_inER9mbstate_tPKcS5_RS5_PDiS7_RS7_
_ZNKSt6__ndk115__codecvt_utf16IDiLb1EE10do_unshiftER9mbstate_tPcS4_RS4_
_ZNKSt6__ndk115__codecvt_utf16IDiLb1EE11do_encodingEv
_ZNKSt6__ndk115__codecvt_utf16IDiLb1EE16do_always_noconvEv
_ZNKSt6__ndk115__codecvt_utf16IDiLb1EE9do_lengthER9mbstate_tPKcS5_m
_ZNKSt6__ndk115__codecvt_utf16IDiLb1EE13do_max_lengthEv
_ZNKSt6__ndk120__codecvt_utf8_utf16IwE6do_outER9mbstate_tPKwS5_RS5_PcS7_RS7_
_ZNKSt6__ndk120__codecvt_utf8_utf16IwE5do_inER9mbstate_tPKcS5_RS5_PwS7_RS7_
_ZNKSt6__ndk120__codecvt_utf8_utf16IwE10do_unshiftER9mbstate_tPcS4_RS4_
_ZNKSt6__ndk120__codecvt_utf8_utf16IwE11do_encodingEv
_ZNKSt6__ndk120__codecvt_utf8_utf16IwE16do_always_noconvEv
_ZNKSt6__ndk120__codecvt_utf8_utf16IwE9do_lengthER9mbstate_tPKcS5_m
_ZNKSt6__ndk120__codecvt_utf8_utf16IwE13do_max_lengthEv
_ZNKSt6__ndk120__codecvt_utf8_utf16IDsE6do_outER9mbstate_tPKDsS5_RS5_PcS7_RS7_
_ZNKSt6__ndk120__codecvt_utf8_utf16IDsE5do_inER9mbstate_tPKcS5_RS5_PDsS7_RS7_
_ZNKSt6__ndk120__codecvt_utf8_utf16IDsE10do_unshiftER9mbstate_tPcS4_RS4_
_ZNKSt6__ndk120__codecvt_utf8_utf16IDsE11do_encodingEv
_ZNKSt6__ndk120__codecvt_utf8_utf16IDsE16do_always_noconvEv
_ZNKSt6__ndk120__codecvt_utf8_utf16IDsE9do_lengthER9mbstate_tPKcS5_m
_ZNKSt6__ndk120__codecvt_utf8_utf16IDsE13do_max_lengthEv
_ZNKSt6__ndk120__codecvt_utf8_utf16IDiE6do_outER9mbstate_tPKDiS5_RS5_PcS7_RS7_
_ZNKSt6__ndk120__codecvt_utf8_utf16IDiE5do_inER9mbstate_tPKcS5_RS5_PDiS7_RS7_
_ZNKSt6__ndk120__codecvt_utf8_utf16IDiE10do_unshiftER9mbstate_tPcS4_RS4_
_ZNKSt6__ndk120__codecvt_utf8_utf16IDiE11do_encodingEv
_ZNKSt6__ndk120__codecvt_utf8_utf16IDiE16do_always_noconvEv
_ZNKSt6__ndk120__codecvt_utf8_utf16IDiE9do_lengthER9mbstate_tPKcS5_m
_ZNKSt6__ndk120__codecvt_utf8_utf16IDiE13do_max_lengthEv
_ZNSt6__ndk116__narrow_to_utf8ILm16EED0Ev
_ZNSt6__ndk116__narrow_to_utf8ILm32EED0Ev
_ZNSt6__ndk117__widen_from_utf8ILm16EED0Ev
_ZNSt6__ndk117__widen_from_utf8ILm32EED0Ev
_ZNSt6__ndk18numpunctIcEC2Em
_ZNSt6__ndk18numpunctIwEC2Em
_ZNSt6__ndk18numpunctIcED0Ev
_ZNSt6__ndk18numpunctIwED0Ev
_ZNKSt6__ndk18numpunctIcE16do_decimal_pointEv
_ZNKSt6__ndk18numpunctIwE16do_decimal_pointEv
_ZNKSt6__ndk18numpunctIcE16do_thousands_sepEv
_ZNKSt6__ndk18numpunctIwE16do_thousands_sepEv
_ZNKSt6__ndk18numpunctIcE11do_groupingEv
_ZNKSt6__ndk18numpunctIwE11do_groupingEv
_ZNKSt6__ndk18numpunctIcE11do_truenameEv
_ZNKSt6__ndk18numpunctIwE11do_truenameEv
_ZNSt6__ndk112basic_stringIwNS_11char_traitsIwEENS_9allocatorIwEEEC2IDnEEPKw
wcslen
_ZNKSt6__ndk18numpunctIcE12do_falsenameEv
_ZNKSt6__ndk18numpunctIwE12do_falsenameEv
_ZNSt6__ndk115numpunct_bynameIcEC2EPKcm
localeconv
_ZNSt6__ndk112basic_stringIcNS_11char_traitsIcEENS_9allocatorIcEEE6assignEPKc
_ZNSt6__ndk122__libcpp_unique_localeD2Ev
_ZNSt6__ndk115numpunct_bynameIcEC2ERKNS_12basic_stringIcNS_11char_traitsIcEENS_9allocatorIcEEEEm
_ZNSt6__ndk115numpunct_bynameIcED0Ev
_ZNSt6__ndk115numpunct_bynameIwEC2EPKcm
_ZNSt6__ndk115numpunct_bynameIwEC2ERKNS_12basic_stringIcNS_11char_traitsIcEENS_9allocatorIcEEEEm
_ZNSt6__ndk115numpunct_bynameIwED0Ev
_ZNSt6__ndk114__num_get_base10__get_baseERNS_8ios_baseE
_ZNKSt6__ndk120__time_get_c_storageIcE7__weeksEv
_ZNKSt6__ndk120__time_get_c_storageIwE7__weeksEv
_ZNSt6__ndk112basic_stringIwNS_11char_traitsIwEENS_9allocatorIwEEE6assignEPKw
_ZNKSt6__ndk120__time_get_c_storageIcE8__monthsEv
_ZNKSt6__ndk120__time_get_c_storageIwE8__monthsEv
_ZNKSt6__ndk120__time_get_c_storageIcE7__am_pmEv
_ZNKSt6__ndk120__time_get_c_storageIwE7__am_pmEv
_ZNKSt6__ndk120__time_get_c_storageIcE3__xEv
_ZNSt6__ndk112basic_stringIcNS_11char_traitsIcEENS_9allocatorIcEEED2Ev
_ZNKSt6__ndk120__time_get_c_storageIwE3__xEv
_ZNSt6__ndk112basic_stringIwNS_11char_traitsIwEENS_9allocatorIwEEED2Ev
_ZNKSt6__ndk120__time_get_c_storageIcE3__XEv
_ZNKSt6__ndk120__time_get_c_storageIwE3__XEv
_ZNKSt6__ndk120__time_get_c_storageIcE3__cEv
_ZNKSt6__ndk120__time_get_c_storageIwE3__cEv
_ZNKSt6__ndk120__time_get_c_storageIcE3__rEv
_ZNKSt6__ndk120__time_get_c_storageIwE3__rEv
_ZNSt6__ndk110__time_getC2EPKc
_ZNSt6__ndk110__time_getC2ERKNS_12basic_stringIcNS_11char_traitsIcEENS_9allocatorIcEEEE
_ZNSt6__ndk110__time_getD2Ev
_ZNSt6__ndk118__time_get_storageIcE9__analyzeEcRKNS_5ctypeIcEE
_ZNSt6__ndk118__time_get_storageIwE9__analyzeEcRKNS_5ctypeIwEE
_ZNSt6__ndk118__time_get_storageIcE4initERKNS_5ctypeIcEE
_ZNSt6__ndk118__time_get_storageIwE4initERKNS_5ctypeIwEE
_ZNSt6__ndk112basic_stringIwNS_11char_traitsIwEENS_9allocatorIwEEE9__grow_byEmmmmmm
_ZNSt6__ndk118__time_get_storageIcEC2EPKc
_ZNSt6__ndk112ctype_bynameIcED2Ev
_ZNSt6__ndk118__time_get_storageIwEC2EPKc
_ZNSt6__ndk112ctype_bynameIwED2Ev
_ZNKSt6__ndk118__time_get_storageIcE15__do_date_orderEv
_ZNKSt6__ndk118__time_get_storageIwE15__do_date_orderEv
_ZNSt6__ndk110__time_putC2EPKc
_ZNSt6__ndk110__time_putC2ERKNS_12basic_stringIcNS_11char_traitsIcEENS_9allocatorIcEEEE
_ZNSt6__ndk110__time_putD2Ev
_ZNSt6__ndk112basic_stringIcNS_11char_traitsIcEENS_9allocatorIcEEE6insertEmmc
_ZNSt6__ndk112basic_stringIcNS_11char_traitsIcEENS_9allocatorIcEEE5eraseEmm
_ZNSt6__ndk112basic_stringIwNS_11char_traitsIwEENS_9allocatorIwEEE6insertEmmw
_ZNSt6__ndk112basic_stringIwNS_11char_traitsIwEENS_9allocatorIwEEE5eraseEmm
_ZNSt6__ndk114__codecvt_utf8IwED0Ev
_ZNSt6__ndk114__codecvt_utf8IDsED0Ev
_ZNSt6__ndk114__codecvt_utf8IDiED0Ev
_ZNSt6__ndk115__codecvt_utf16IwLb0EED0Ev
_ZNSt6__ndk115__codecvt_utf16IwLb1EED0Ev
_ZNSt6__ndk115__codecvt_utf16IDsLb0EED0Ev
_ZNSt6__ndk115__codecvt_utf16IDsLb1EED0Ev
_ZNSt6__ndk115__codecvt_utf16IDiLb0EED0Ev
_ZNSt6__ndk115__codecvt_utf16IDiLb1EED0Ev
_ZNSt6__ndk120__codecvt_utf8_utf16IwED0Ev
_ZNSt6__ndk120__codecvt_utf8_utf16IDiED0Ev
_ZNSt6__ndk120__codecvt_utf8_utf16IDsED0Ev
strtoll_l
strtoull_l
strtof
strtod
strtold_l
_ZNSt6__ndk112basic_stringIcNS_11char_traitsIcEENS_9allocatorIcEEE9__grow_byEmmmmmm
_ZNSt6__ndk112basic_stringIwNS_11char_traitsIwEENS_9allocatorIwEEE6appendEPKwm
_ZNSt6__ndk110moneypunctIcLb0EE4intlE
_ZNSt6__ndk110moneypunctIcLb1EE4intlE
_ZNSt6__ndk110moneypunctIwLb0EE4intlE
_ZNSt6__ndk110moneypunctIwLb1EE4intlE
_ZNSt6__ndk16locale4noneE
_ZNSt6__ndk16locale7collateE
_ZNSt6__ndk16locale5ctypeE
_ZNSt6__ndk16locale8monetaryE
_ZNSt6__ndk16locale7numericE
_ZNSt6__ndk16locale4timeE
_ZNSt6__ndk16locale8messagesE
_ZNSt6__ndk16locale3allE
_ZTINSt6__ndk114collate_bynameIcEE
_ZTINSt6__ndk114collate_bynameIwEE
_ZNSt6__ndk110ctype_base5spaceE
_ZNSt6__ndk110ctype_base5printE
_ZNSt6__ndk110ctype_base5cntrlE
_ZNSt6__ndk110ctype_base5upperE
_ZNSt6__ndk110ctype_base5lowerE
_ZNSt6__ndk110ctype_base5alphaE
_ZNSt6__ndk110ctype_base5digitE
_ZNSt6__ndk110ctype_base5punctE
_ZNSt6__ndk110ctype_base6xdigitE
_ZNSt6__ndk110ctype_base5blankE
_ZNSt6__ndk110ctype_base5alnumE
_ZNSt6__ndk110ctype_base5graphE
_ZTINSt6__ndk15ctypeIcEE
_ZTINSt6__ndk112ctype_bynameIcEE
_ZTINSt6__ndk112ctype_bynameIwEE
_ZTINSt6__ndk17codecvtIwc9mbstate_tEE
_ZTINSt6__ndk18numpunctIcEE
_ZTINSt6__ndk18numpunctIwEE
_ZTINSt6__ndk115numpunct_bynameIcEE
_ZTINSt6__ndk115numpunct_bynameIwEE
_ZTINSt6__ndk16locale5facetE
_ZTSNSt6__ndk16locale5facetE
_ZTINSt6__ndk114__shared_countE
_ZTINSt6__ndk15ctypeIwEE
_ZTSNSt6__ndk15ctypeIwEE
_ZTSNSt6__ndk110ctype_baseE
_ZTINSt6__ndk110ctype_baseE
_ZTINSt6__ndk17codecvtIcc9mbstate_tEE
_ZTSNSt6__ndk17codecvtIcc9mbstate_tEE
_ZTSNSt6__ndk112codecvt_baseE
_ZTINSt6__ndk112codecvt_baseE
_ZTINSt6__ndk17codecvtIDsc9mbstate_tEE
_ZTSNSt6__ndk17codecvtIDsc9mbstate_tEE
_ZTINSt6__ndk17codecvtIDic9mbstate_tEE
_ZTSNSt6__ndk17codecvtIDic9mbstate_tEE
_ZTVNSt6__ndk116__narrow_to_utf8ILm16EEE
_ZTINSt6__ndk116__narrow_to_utf8ILm16EEE
_ZTSNSt6__ndk116__narrow_to_utf8ILm16EEE
_ZTVNSt6__ndk116__narrow_to_utf8ILm32EEE
_ZTINSt6__ndk116__narrow_to_utf8ILm32EEE
_ZTSNSt6__ndk116__narrow_to_utf8ILm32EEE
_ZTVNSt6__ndk117__widen_from_utf8ILm16EEE
_ZTINSt6__ndk117__widen_from_utf8ILm16EEE
_ZTSNSt6__ndk117__widen_from_utf8ILm16EEE
_ZTVNSt6__ndk117__widen_from_utf8ILm32EEE
_ZTINSt6__ndk117__widen_from_utf8ILm32EEE
_ZTSNSt6__ndk117__widen_from_utf8ILm32EEE
_ZTVNSt6__ndk114__codecvt_utf8IwEE
_ZTINSt6__ndk114__codecvt_utf8IwEE
_ZTSNSt6__ndk114__codecvt_utf8IwEE
_ZTSNSt6__ndk17codecvtIwc9mbstate_tEE
_ZTVNSt6__ndk114__codecvt_utf8IDsEE
_ZTINSt6__ndk114__codecvt_utf8IDsEE
_ZTSNSt6__ndk114__codecvt_utf8IDsEE
_ZTVNSt6__ndk114__codecvt_utf8IDiEE
_ZTINSt6__ndk114__codecvt_utf8IDiEE
_ZTSNSt6__ndk114__codecvt_utf8IDiEE
_ZTVNSt6__ndk115__codecvt_utf16IwLb0EEE
_ZTINSt6__ndk115__codecvt_utf16IwLb0EEE
_ZTSNSt6__ndk115__codecvt_utf16IwLb0EEE
_ZTVNSt6__ndk115__codecvt_utf16IwLb1EEE
_ZTINSt6__ndk115__codecvt_utf16IwLb1EEE
_ZTSNSt6__ndk115__codecvt_utf16IwLb1EEE
_ZTVNSt6__ndk115__codecvt_utf16IDsLb0EEE
_ZTINSt6__ndk115__codecvt_utf16IDsLb0EEE
_ZTSNSt6__ndk115__codecvt_utf16IDsLb0EEE
_ZTVNSt6__ndk115__codecvt_utf16IDsLb1EEE
_ZTINSt6__ndk115__codecvt_utf16IDsLb1EEE
_ZTSNSt6__ndk115__codecvt_utf16IDsLb1EEE
_ZTVNSt6__ndk115__codecvt_utf16IDiLb0EEE
_ZTINSt6__ndk115__codecvt_utf16IDiLb0EEE
_ZTSNSt6__ndk115__codecvt_utf16IDiLb0EEE
_ZTVNSt6__ndk115__codecvt_utf16IDiLb1EEE
_ZTINSt6__ndk115__codecvt_utf16IDiLb1EEE
_ZTSNSt6__ndk115__codecvt_utf16IDiLb1EEE
_ZTVNSt6__ndk120__codecvt_utf8_utf16IwEE
_ZTINSt6__ndk120__codecvt_utf8_utf16IwEE
_ZTSNSt6__ndk120__codecvt_utf8_utf16IwEE
_ZTVNSt6__ndk120__codecvt_utf8_utf16IDiEE
_ZTINSt6__ndk120__codecvt_utf8_utf16IDiEE
_ZTSNSt6__ndk120__codecvt_utf8_utf16IDiEE
_ZTVNSt6__ndk120__codecvt_utf8_utf16IDsEE
_ZTINSt6__ndk120__codecvt_utf8_utf16IDsEE
_ZTSNSt6__ndk120__codecvt_utf8_utf16IDsEE
_ZTSNSt6__ndk114collate_bynameIcEE
_ZTSNSt6__ndk17collateIcEE
_ZTINSt6__ndk17collateIcEE
_ZTSNSt6__ndk114collate_bynameIwEE
_ZTSNSt6__ndk17collateIwEE
_ZTINSt6__ndk17collateIwEE
_ZTSNSt6__ndk15ctypeIcEE
_ZTSNSt6__ndk112ctype_bynameIcEE
_ZTSNSt6__ndk112ctype_bynameIwEE
_ZTSNSt6__ndk18numpunctIcEE
_ZTSNSt6__ndk18numpunctIwEE
_ZTSNSt6__ndk115numpunct_bynameIcEE
_ZTSNSt6__ndk115numpunct_bynameIwEE
_ZTINSt6__ndk17num_getIcNS_19istreambuf_iteratorIcNS_11char_traitsIcEEEEEE
_ZTSNSt6__ndk17num_getIcNS_19istreambuf_iteratorIcNS_11char_traitsIcEEEEEE
_ZTSNSt6__ndk19__num_getIcEE
_ZTSNSt6__ndk114__num_get_baseE
_ZTINSt6__ndk114__num_get_baseE
_ZTINSt6__ndk19__num_getIcEE
_ZTINSt6__ndk17num_getIwNS_19istreambuf_iteratorIwNS_11char_traitsIwEEEEEE
_ZTSNSt6__ndk17num_getIwNS_19istreambuf_iteratorIwNS_11char_traitsIwEEEEEE
_ZTSNSt6__ndk19__num_getIwEE
_ZTINSt6__ndk19__num_getIwEE
_ZTINSt6__ndk17num_putIcNS_19ostreambuf_iteratorIcNS_11char_traitsIcEEEEEE
_ZTSNSt6__ndk17num_putIcNS_19ostreambuf_iteratorIcNS_11char_traitsIcEEEEEE
_ZTSNSt6__ndk19__num_putIcEE
_ZTSNSt6__ndk114__num_put_baseE
_ZTINSt6__ndk114__num_put_baseE
_ZTINSt6__ndk19__num_putIcEE
_ZTINSt6__ndk17num_putIwNS_19ostreambuf_iteratorIwNS_11char_traitsIwEEEEEE
_ZTSNSt6__ndk17num_putIwNS_19ostreambuf_iteratorIwNS_11char_traitsIwEEEEEE
_ZTSNSt6__ndk19__num_putIwEE
_ZTINSt6__ndk19__num_putIwEE
_ZTINSt6__ndk18time_getIcNS_19istreambuf_iteratorIcNS_11char_traitsIcEEEEEE
_ZTSNSt6__ndk18time_getIcNS_19istreambuf_iteratorIcNS_11char_traitsIcEEEEEE
_ZTSNSt6__ndk19time_baseE
_ZTINSt6__ndk19time_baseE
_ZTSNSt6__ndk120__time_get_c_storageIcEE
_ZTINSt6__ndk120__time_get_c_storageIcEE
_ZTINSt6__ndk18time_getIwNS_19istreambuf_iteratorIwNS_11char_traitsIwEEEEEE
_ZTSNSt6__ndk18time_getIwNS_19istreambuf_iteratorIwNS_11char_traitsIwEEEEEE
_ZTSNSt6__ndk120__time_get_c_storageIwEE
_ZTINSt6__ndk120__time_get_c_storageIwEE
_ZTINSt6__ndk115time_get_bynameIcNS_19istreambuf_iteratorIcNS_11char_traitsIcEEEEEE
_ZTSNSt6__ndk115time_get_bynameIcNS_19istreambuf_iteratorIcNS_11char_traitsIcEEEEEE
_ZTSNSt6__ndk118__time_get_storageIcEE
_ZTSNSt6__ndk110__time_getE
_ZTINSt6__ndk110__time_getE
_ZTINSt6__ndk118__time_get_storageIcEE
_ZTINSt6__ndk115time_get_bynameIwNS_19istreambuf_iteratorIwNS_11char_traitsIwEEEEEE
_ZTSNSt6__ndk115time_get_bynameIwNS_19istreambuf_iteratorIwNS_11char_traitsIwEEEEEE
_ZTSNSt6__ndk118__time_get_storageIwEE
_ZTINSt6__ndk118__time_get_storageIwEE
_ZTINSt6__ndk18time_putIcNS_19ostreambuf_iteratorIcNS_11char_traitsIcEEEEEE
_ZTSNSt6__ndk18time_putIcNS_19ostreambuf_iteratorIcNS_11char_traitsIcEEEEEE
_ZTSNSt6__ndk110__time_putE
_ZTINSt6__ndk110__time_putE
_ZTINSt6__ndk18time_putIwNS_19ostreambuf_iteratorIwNS_11char_traitsIwEEEEEE
_ZTSNSt6__ndk18time_putIwNS_19ostreambuf_iteratorIwNS_11char_traitsIwEEEEEE
_ZTINSt6__ndk115time_put_bynameIcNS_19ostreambuf_iteratorIcNS_11char_traitsIcEEEEEE
_ZTSNSt6__ndk115time_put_bynameIcNS_19ostreambuf_iteratorIcNS_11char_traitsIcEEEEEE
_ZTINSt6__ndk115time_put_bynameIwNS_19ostreambuf_iteratorIwNS_11char_traitsIwEEEEEE
_ZTSNSt6__ndk115time_put_bynameIwNS_19ostreambuf_iteratorIwNS_11char_traitsIwEEEEEE
_ZTINSt6__ndk110moneypunctIcLb0EEE
_ZTSNSt6__ndk110moneypunctIcLb0EEE
_ZTSNSt6__ndk110money_baseE
_ZTINSt6__ndk110money_baseE
_ZTINSt6__ndk110moneypunctIcLb1EEE
_ZTSNSt6__ndk110moneypunctIcLb1EEE
_ZTINSt6__ndk110moneypunctIwLb0EEE
_ZTSNSt6__ndk110moneypunctIwLb0EEE
_ZTINSt6__ndk110moneypunctIwLb1EEE
_ZTSNSt6__ndk110moneypunctIwLb1EEE
_ZTINSt6__ndk117moneypunct_bynameIcLb0EEE
_ZTSNSt6__ndk117moneypunct_bynameIcLb0EEE
_ZTINSt6__ndk117moneypunct_bynameIcLb1EEE
_ZTSNSt6__ndk117moneypunct_bynameIcLb1EEE
_ZTINSt6__ndk117moneypunct_bynameIwLb0EEE
_ZTSNSt6__ndk117moneypunct_bynameIwLb0EEE
_ZTINSt6__ndk117moneypunct_bynameIwLb1EEE
_ZTSNSt6__ndk117moneypunct_bynameIwLb1EEE
_ZTINSt6__ndk19money_getIcNS_19istreambuf_iteratorIcNS_11char_traitsIcEEEEEE
_ZTSNSt6__ndk19money_getIcNS_19istreambuf_iteratorIcNS_11char_traitsIcEEEEEE
_ZTSNSt6__ndk111__money_getIcEE
_ZTINSt6__ndk111__money_getIcEE
_ZTINSt6__ndk19money_getIwNS_19istreambuf_iteratorIwNS_11char_traitsIwEEEEEE
_ZTSNSt6__ndk19money_getIwNS_19istreambuf_iteratorIwNS_11char_traitsIwEEEEEE
_ZTSNSt6__ndk111__money_getIwEE
_ZTINSt6__ndk111__money_getIwEE
_ZTINSt6__ndk19money_putIcNS_19ostreambuf_iteratorIcNS_11char_traitsIcEEEEEE
_ZTSNSt6__ndk19money_putIcNS_19ostreambuf_iteratorIcNS_11char_traitsIcEEEEEE
_ZTSNSt6__ndk111__money_putIcEE
_ZTINSt6__ndk111__money_putIcEE
_ZTINSt6__ndk19money_putIwNS_19ostreambuf_iteratorIwNS_11char_traitsIwEEEEEE
_ZTSNSt6__ndk19money_putIwNS_19ostreambuf_iteratorIwNS_11char_traitsIwEEEEEE
_ZTSNSt6__ndk111__money_putIwEE
_ZTINSt6__ndk111__money_putIwEE
_ZTINSt6__ndk18messagesIcEE
_ZTSNSt6__ndk18messagesIcEE
_ZTSNSt6__ndk113messages_baseE
_ZTINSt6__ndk113messages_baseE
_ZTINSt6__ndk18messagesIwEE
_ZTSNSt6__ndk18messagesIwEE
_ZTINSt6__ndk115messages_bynameIcEE
_ZTSNSt6__ndk115messages_bynameIcEE
_ZTINSt6__ndk115messages_bynameIwEE
_ZTSNSt6__ndk115messages_bynameIwEE
_ZTINSt6__ndk114codecvt_bynameIcc9mbstate_tEE
_ZTSNSt6__ndk114codecvt_bynameIcc9mbstate_tEE
_ZTINSt6__ndk114codecvt_bynameIwc9mbstate_tEE
_ZTSNSt6__ndk114codecvt_bynameIwc9mbstate_tEE
_ZTINSt6__ndk114codecvt_bynameIDsc9mbstate_tEE
_ZTSNSt6__ndk114codecvt_bynameIDsc9mbstate_tEE
_ZTINSt6__ndk114codecvt_bynameIDic9mbstate_tEE
_ZTSNSt6__ndk114codecvt_bynameIDic9mbstate_tEE
_ZNSt6__ndk17collateIcED1Ev
_ZNSt6__ndk17collateIwED1Ev
_ZNSt6__ndk114codecvt_bynameIcc9mbstate_tED1Ev
_ZNSt6__ndk114codecvt_bynameIwc9mbstate_tED1Ev
_ZNSt6__ndk114codecvt_bynameIDsc9mbstate_tED1Ev
_ZNSt6__ndk114codecvt_bynameIDic9mbstate_tED1Ev
_ZNSt6__ndk16localeC1EPKc
_ZNSt6__ndk16localeC1ERKNS_12basic_stringIcNS_11char_traitsIcEENS_9allocatorIcEEEE
_ZNSt6__ndk16localeC1ERKS0_PKci
_ZNSt6__ndk16localeC1ERKS0_RKNS_12basic_stringIcNS_11char_traitsIcEENS_9allocatorIcEEEEi
_ZNSt6__ndk16localeC1ERKS0_S2_i
_ZNSt6__ndk16locale5facetD1Ev
_ZNSt6__ndk114collate_bynameIcEC1EPKcm
_ZNSt6__ndk114collate_bynameIcEC1ERKNS_12basic_stringIcNS_11char_traitsIcEENS_9allocatorIcEEEEm
_ZNSt6__ndk114collate_bynameIcED1Ev
_ZNSt6__ndk114collate_bynameIwEC1EPKcm
_ZNSt6__ndk114collate_bynameIwEC1ERKNS_12basic_stringIcNS_11char_traitsIcEENS_9allocatorIcEEEEm
_ZNSt6__ndk114collate_bynameIwED1Ev
_ZNSt6__ndk15ctypeIwED2Ev
_ZNSt6__ndk15ctypeIwED1Ev
_ZNSt6__ndk15ctypeIcEC1EPKmbm
_ZNSt6__ndk15ctypeIcED1Ev
_ZNSt6__ndk112ctype_bynameIcEC1EPKcm
_ZNSt6__ndk112ctype_bynameIcEC1ERKNS_12basic_stringIcNS_11char_traitsIcEENS_9allocatorIcEEEEm
_ZNSt6__ndk112ctype_bynameIcED1Ev
_ZNSt6__ndk112ctype_bynameIwEC1EPKcm
_ZNSt6__ndk112ctype_bynameIwEC1ERKNS_12basic_stringIcNS_11char_traitsIcEENS_9allocatorIcEEEEm
_ZNSt6__ndk112ctype_bynameIwED1Ev
_ZNSt6__ndk17codecvtIcc9mbstate_tED2Ev
_ZNSt6__ndk17codecvtIcc9mbstate_tED1Ev
_ZNSt6__ndk17codecvtIwc9mbstate_tEC1Em
_ZNSt6__ndk17codecvtIwc9mbstate_tEC1EPKcm
_ZNSt6__ndk17codecvtIwc9mbstate_tED1Ev
_ZNSt6__ndk17codecvtIDsc9mbstate_tED2Ev
_ZNSt6__ndk17codecvtIDsc9mbstate_tED1Ev
_ZNSt6__ndk17codecvtIDic9mbstate_tED2Ev
_ZNSt6__ndk17codecvtIDic9mbstate_tED1Ev
_ZNSt6__ndk116__narrow_to_utf8ILm16EED2Ev
_ZNSt6__ndk116__narrow_to_utf8ILm16EED1Ev
_ZNSt6__ndk116__narrow_to_utf8ILm32EED2Ev
_ZNSt6__ndk116__narrow_to_utf8ILm32EED1Ev
_ZNSt6__ndk117__widen_from_utf8ILm16EED2Ev
_ZNSt6__ndk117__widen_from_utf8ILm16EED1Ev
_ZNSt6__ndk117__widen_from_utf8ILm32EED2Ev
_ZNSt6__ndk117__widen_from_utf8ILm32EED1Ev
_ZNSt6__ndk18numpunctIcEC1Em
_ZNSt6__ndk18numpunctIwEC1Em
_ZNSt6__ndk18numpunctIcED1Ev
_ZNSt6__ndk18numpunctIwED1Ev
_ZNSt6__ndk115numpunct_bynameIcEC1EPKcm
_ZNSt6__ndk115numpunct_bynameIcEC1ERKNS_12basic_stringIcNS_11char_traitsIcEENS_9allocatorIcEEEEm
_ZNSt6__ndk115numpunct_bynameIcED2Ev
_ZNSt6__ndk115numpunct_bynameIcED1Ev
_ZNSt6__ndk115numpunct_bynameIwEC1EPKcm
_ZNSt6__ndk115numpunct_bynameIwEC1ERKNS_12basic_stringIcNS_11char_traitsIcEENS_9allocatorIcEEEEm
_ZNSt6__ndk115numpunct_bynameIwED2Ev
_ZNSt6__ndk115numpunct_bynameIwED1Ev
_ZNSt6__ndk110__time_getC1EPKc
_ZNSt6__ndk110__time_getC1ERKNS_12basic_stringIcNS_11char_traitsIcEENS_9allocatorIcEEEE
_ZNSt6__ndk110__time_getD1Ev
_ZNSt6__ndk118__time_get_storageIcEC1EPKc
_ZNSt6__ndk118__time_get_storageIcEC1ERKNS_12basic_stringIcNS_11char_traitsIcEENS_9allocatorIcEEEE
_ZNSt6__ndk118__time_get_storageIwEC1EPKc
_ZNSt6__ndk118__time_get_storageIwEC1ERKNS_12basic_stringIcNS_11char_traitsIcEENS_9allocatorIcEEEE
_ZNSt6__ndk110__time_putC1EPKc
_ZNSt6__ndk110__time_putC1ERKNS_12basic_stringIcNS_11char_traitsIcEENS_9allocatorIcEEEE
_ZNSt6__ndk110__time_putD1Ev
_ZNSt6__ndk112bad_weak_ptrD2Ev
_ZNSt6__ndk112bad_weak_ptrD0Ev
_ZNKSt6__ndk112bad_weak_ptr4whatEv
_ZNSt9exceptionD2Ev
_ZNSt6__ndk114__shared_countD0Ev
_ZNSt6__ndk119__shared_weak_countD0Ev
_ZNSt6__ndk119__shared_weak_count12__add_sharedEv
_ZNSt6__ndk119__shared_weak_count10__add_weakEv
_ZNSt6__ndk119__shared_weak_count16__release_sharedEv
_ZNSt6__ndk119__shared_weak_count14__release_weakEv
_ZNSt6__ndk119__shared_weak_count4lockEv
_ZNKSt6__ndk119__shared_weak_count13__get_deleterERKSt9type_info
_ZNSt6__ndk18__sp_mut4lockEv
pthread_mutex_trylock
sched_yield
_ZNSt6__ndk18__sp_mut6unlockEv
_ZNSt6__ndk112__get_sp_mutEPKv
_ZNSt6__ndk117declare_reachableEPv
_ZNSt6__ndk119declare_no_pointersEPcm
_ZNSt6__ndk121undeclare_no_pointersEPcm
_ZNSt6__ndk118get_pointer_safetyEv
_ZNSt6__ndk121__undeclare_reachableEPv
_ZNSt6__ndk15alignEmmRPvRm
_ZNSt6__ndk113allocator_argE
_ZTVNSt6__ndk112bad_weak_ptrE
_ZTINSt6__ndk112bad_weak_ptrE
_ZTSNSt6__ndk112bad_weak_ptrE
_ZTISt9exception
_ZTVNSt6__ndk114__shared_countE
__cxa_pure_virtual
_ZTSNSt6__ndk114__shared_countE
_ZTVNSt6__ndk119__shared_weak_countE
_ZTINSt6__ndk119__shared_weak_countE
_ZTSNSt6__ndk119__shared_weak_countE
_ZNSt6__ndk112bad_weak_ptrD1Ev
_ZNSt6__ndk114__shared_countD1Ev
_ZNSt6__ndk119__shared_weak_countD2Ev
_ZNSt6__ndk119__shared_weak_countD1Ev
_ZNSt6__ndk15mutex4lockEv
_ZNSt6__ndk15mutex8try_lockEv
_ZNSt6__ndk15mutex6unlockEv
_ZNSt6__ndk115recursive_mutexC2Ev
_ZNSt6__ndk115recursive_mutexD2Ev
_ZNSt6__ndk115recursive_mutex4lockEv
_ZNSt6__ndk115recursive_mutex6unlockEv
_ZNSt6__ndk115recursive_mutex8try_lockEv
_ZNSt6__ndk111timed_mutexC2Ev
_ZNSt6__ndk111timed_mutexD2Ev
_ZNSt6__ndk111timed_mutex4lockEv
_ZNSt6__ndk111timed_mutex8try_lockEv
_ZNSt6__ndk111timed_mutex6unlockEv
_ZNSt6__ndk121recursive_timed_mutexC2Ev
_ZNSt6__ndk121recursive_timed_mutexD2Ev
_ZNSt6__ndk121recursive_timed_mutex4lockEv
_ZNSt6__ndk121recursive_timed_mutex8try_lockEv
_ZNSt6__ndk121recursive_timed_mutex6unlockEv
pthread_mutexattr_init
pthread_mutexattr_settype
pthread_mutex_init
pthread_mutexattr_destroy
pthread_mutex_destroy
_ZNSt6__ndk15mutexD1Ev
pthread_self
pthread_equal
pthread_cond_wait
pthread_cond_broadcast
_ZNSt6__ndk110defer_lockE
_ZNSt6__ndk111try_to_lockE
_ZNSt6__ndk110adopt_lockE
_ZNSt6__ndk115recursive_mutexC1Ev
_ZNSt6__ndk115recursive_mutexD1Ev
_ZNSt6__ndk111timed_mutexC1Ev
_ZNSt6__ndk111timed_mutexD1Ev
_ZNSt6__ndk121recursive_timed_mutexC1Ev
_ZNSt6__ndk121recursive_timed_mutexD1Ev
pthread_cond_destroy
pthread_cond_signal
pthread_cond_timedwait
pthread_getspecific
_ZNSt6__ndk115__thread_struct25notify_all_at_thread_exitEPNS_18condition_variableEPNS_5mutexE
_ZNSt6__ndk15mutexD2Ev
_ZNSt9bad_allocC1Ev
_ZTISt9bad_alloc
_ZNSt9bad_allocD1Ev
_ZSt15get_new_handlerv
_ZnwmRKSt9nothrow_t
_ZnamRKSt9nothrow_t
_ZdlPvRKSt9nothrow_t
_ZdlPvm
_ZdaPvRKSt9nothrow_t
_ZdaPvm
posix_memalign
_ZnwmSt11align_val_tRKSt9nothrow_t
_ZnamSt11align_val_t
_ZnamSt11align_val_tRKSt9nothrow_t
_ZdlPvSt11align_val_tRKSt9nothrow_t
_ZdlPvmSt11align_val_t
_ZdaPvSt11align_val_t
_ZdaPvSt11align_val_tRKSt9nothrow_t
_ZdaPvmSt11align_val_t
_ZSt7nothrow
_ZNSt11logic_errorC2ERKNSt6__ndk112basic_stringIcNS0_11char_traitsIcEENS0_9allocatorIcEEEE
_ZNSt11logic_errorC2EPKc
_ZNSt11logic_errorC2ERKS_
_ZNSt11logic_erroraSERKS_
_ZNSt13runtime_errorC2ERKNSt6__ndk112basic_stringIcNS0_11char_traitsIcEENS0_9allocatorIcEEEE
_ZNSt13runtime_errorC2EPKc
_ZNSt13runtime_errorC2ERKS_
_ZNSt13runtime_erroraSERKS_
_ZNSt11logic_errorC1ERKNSt6__ndk112basic_stringIcNS0_11char_traitsIcEENS0_9allocatorIcEEEE
_ZNSt11logic_errorC1EPKc
_ZNSt11logic_errorC1ERKS_
_ZTVSt11logic_error
_ZTVSt13runtime_error
_ZNSt13runtime_errorC1ERKS_
_ZTISt12length_error
_ZNSt12length_errorD1Ev
_ZNKSt6__ndk121__basic_string_commonILb1EE20__throw_out_of_rangeEv
_ZTISt12out_of_range
_ZNSt12out_of_rangeD1Ev
_ZNSt6__ndk112basic_stringIcNS_11char_traitsIcEENS_9allocatorIcEEE7replaceEmmPKcm
_ZNSt6__ndk112basic_stringIcNS_11char_traitsIcEENS_9allocatorIcEEE21__grow_by_and_replaceEmmmmmmPKc
_ZNKSt6__ndk112basic_stringIcNS_11char_traitsIcEENS_9allocatorIcEEE5rfindEPKcmm
_ZNSt6__ndk112basic_stringIcNS_11char_traitsIcEENS_9allocatorIcEEE6__initEPKcmm
_ZNSt6__ndk112basic_stringIcNS_11char_traitsIcEENS_9allocatorIcEEEC2ERKS5_
_ZNSt6__ndk112basic_stringIcNS_11char_traitsIcEENS_9allocatorIcEEE7replaceEmmPKc
_ZNSt6__ndk112basic_stringIcNS_11char_traitsIcEENS_9allocatorIcEEEC2ERKS5_RKS4_
_ZNKSt6__ndk112basic_stringIcNS_11char_traitsIcEENS_9allocatorIcEEE16find_last_not_ofEPKcmm
_ZNKSt6__ndk112basic_stringIcNS_11char_traitsIcEENS_9allocatorIcEEE17find_first_not_ofEPKcmm
_ZNSt6__ndk112basic_stringIcNS_11char_traitsIcEENS_9allocatorIcEEEaSEc
_ZNKSt6__ndk112basic_stringIcNS_11char_traitsIcEENS_9allocatorIcEEE2atEm
_ZNSt6__ndk112basic_stringIcNS_11char_traitsIcEENS_9allocatorIcEEE6insertEmPKcm
_ZNKSt6__ndk112basic_stringIcNS_11char_traitsIcEENS_9allocatorIcEEE13find_first_ofEPKcmm
_ZNSt6__ndk112basic_stringIcNS_11char_traitsIcEENS_9allocatorIcEEE7replaceEmmmc
_ZNSt6__ndk112basic_stringIcNS_11char_traitsIcEENS_9allocatorIcEEE6assignEPKcm
_ZNSt6__ndk112basic_stringIcNS_11char_traitsIcEENS_9allocatorIcEEE7reserveEm
_ZNSt6__ndk112basic_stringIcNS_11char_traitsIcEENS_9allocatorIcEEE6assignERKS5_mm
_ZNKSt6__ndk112basic_stringIcNS_11char_traitsIcEENS_9allocatorIcEEE4copyEPcmm
_ZNSt6__ndk112basic_stringIcNS_11char_traitsIcEENS_9allocatorIcEEEC2ERKS5_mmRKS4_
_ZNKSt6__ndk112basic_stringIcNS_11char_traitsIcEENS_9allocatorIcEEE4findEcm
_ZNKSt6__ndk112basic_stringIcNS_11char_traitsIcEENS_9allocatorIcEEE12find_last_ofEPKcmm
_ZNSt6__ndk112basic_stringIcNS_11char_traitsIcEENS_9allocatorIcEEE6appendEmc
_ZNSt6__ndk112basic_stringIcNS_11char_traitsIcEENS_9allocatorIcEEE6assignEmc
_ZNSt6__ndk112basic_stringIcNS_11char_traitsIcEENS_9allocatorIcEEE6appendERKS5_mm
_ZNKSt6__ndk112basic_stringIcNS_11char_traitsIcEENS_9allocatorIcEEE7compareEPKc
_ZNKSt6__ndk112basic_stringIcNS_11char_traitsIcEENS_9allocatorIcEEE7compareEmmPKc
_ZNSt6__ndk112basic_stringIcNS_11char_traitsIcEENS_9allocatorIcEEE2atEm
_ZNKSt6__ndk112basic_stringIcNS_11char_traitsIcEENS_9allocatorIcEEE4findEPKcmm
_ZNKSt6__ndk112basic_stringIcNS_11char_traitsIcEENS_9allocatorIcEEE7compareEmmRKS5_mm
_ZNSt6__ndk112basic_stringIcNS_11char_traitsIcEENS_9allocatorIcEEEaSERKS5_
_ZNSt6__ndk112basic_stringIcNS_11char_traitsIcEENS_9allocatorIcEEE7replaceEmmRKS5_mm
_ZNSt6__ndk112basic_stringIcNS_11char_traitsIcEENS_9allocatorIcEEE6insertENS_11__wrap_iterIPKcEEc
_ZNSt6__ndk112basic_stringIcNS_11char_traitsIcEENS_9allocatorIcEEE6insertEmRKS5_mm
_ZNSt6__ndk112basic_stringIwNS_11char_traitsIwEENS_9allocatorIwEEE7replaceEmmPKwm
_ZNSt6__ndk112basic_stringIwNS_11char_traitsIwEENS_9allocatorIwEEE21__grow_by_and_replaceEmmmmmmPKw
wmemmove
_ZNSt6__ndk111char_traitsIwE4moveEPwPKwm
_ZNKSt6__ndk112basic_stringIwNS_11char_traitsIwEENS_9allocatorIwEEE5rfindEPKwmm
_ZNSt6__ndk112basic_stringIwNS_11char_traitsIwEENS_9allocatorIwEEE6__initEPKwmm
_ZNSt6__ndk112basic_stringIwNS_11char_traitsIwEENS_9allocatorIwEEEC2ERKS5_
_ZNSt6__ndk112basic_stringIwNS_11char_traitsIwEENS_9allocatorIwEEE7replaceEmmPKw
_ZNSt6__ndk112basic_stringIwNS_11char_traitsIwEENS_9allocatorIwEEEC2ERKS5_RKS4_
_ZNKSt6__ndk112basic_stringIwNS_11char_traitsIwEENS_9allocatorIwEEE16find_last_not_ofEPKwmm
wmemchr
_ZNKSt6__ndk112basic_stringIwNS_11char_traitsIwEENS_9allocatorIwEEE17find_first_not_ofEPKwmm
_ZNSt6__ndk112basic_stringIwNS_11char_traitsIwEENS_9allocatorIwEEEaSEw
_ZNSt6__ndk112basic_stringIwNS_11char_traitsIwEENS_9allocatorIwEEE6__initEPKwm
_ZNKSt6__ndk112basic_stringIwNS_11char_traitsIwEENS_9allocatorIwEEE2atEm
_ZNSt6__ndk112basic_stringIwNS_11char_traitsIwEENS_9allocatorIwEEE6insertEmPKwm
_ZNKSt6__ndk112basic_stringIwNS_11char_traitsIwEENS_9allocatorIwEEE13find_first_ofEPKwmm
_ZNSt6__ndk112basic_stringIwNS_11char_traitsIwEENS_9allocatorIwEEE7replaceEmmmw
_ZNSt6__ndk112basic_stringIwNS_11char_traitsIwEENS_9allocatorIwEEE6assignEPKwm
_ZNSt6__ndk112basic_stringIwNS_11char_traitsIwEENS_9allocatorIwEEE7reserveEm
_ZNSt6__ndk112basic_stringIwNS_11char_traitsIwEENS_9allocatorIwEEE6assignERKS5_mm
_ZNKSt6__ndk112basic_stringIwNS_11char_traitsIwEENS_9allocatorIwEEE4copyEPwmm
_ZNSt6__ndk112basic_stringIwNS_11char_traitsIwEENS_9allocatorIwEEEC2ERKS5_mmRKS4_
_ZNKSt6__ndk112basic_stringIwNS_11char_traitsIwEENS_9allocatorIwEEE4findEwm
_ZNSt6__ndk112basic_stringIwNS_11char_traitsIwEENS_9allocatorIwEEE6__initEmw
_ZNSt6__ndk112basic_stringIwNS_11char_traitsIwEENS_9allocatorIwEEE6insertEmPKw
_ZNKSt6__ndk112basic_stringIwNS_11char_traitsIwEENS_9allocatorIwEEE12find_last_ofEPKwmm
_ZNSt6__ndk112basic_stringIwNS_11char_traitsIwEENS_9allocatorIwEEE6appendEmw
_ZNKSt6__ndk112basic_stringIwNS_11char_traitsIwEENS_9allocatorIwEEE5rfindEwm
_ZNSt6__ndk112basic_stringIwNS_11char_traitsIwEENS_9allocatorIwEEE6assignEmw
_ZNSt6__ndk112basic_stringIwNS_11char_traitsIwEENS_9allocatorIwEEE6appendERKS5_mm
_ZNKSt6__ndk112basic_stringIwNS_11char_traitsIwEENS_9allocatorIwEEE7compareEPKw
wmemcmp
_ZNKSt6__ndk112basic_stringIwNS_11char_traitsIwEENS_9allocatorIwEEE7compareEmmPKwm
_ZNKSt6__ndk112basic_stringIwNS_11char_traitsIwEENS_9allocatorIwEEE7compareEmmPKw
_ZNSt6__ndk112basic_stringIwNS_11char_traitsIwEENS_9allocatorIwEEE2atEm
_ZNKSt6__ndk112basic_stringIwNS_11char_traitsIwEENS_9allocatorIwEEE4findEPKwmm
_ZNKSt6__ndk112basic_stringIwNS_11char_traitsIwEENS_9allocatorIwEEE7compareEmmRKS5_mm
_ZNSt6__ndk112basic_stringIwNS_11char_traitsIwEENS_9allocatorIwEEEaSERKS5_
_ZNSt6__ndk112basic_stringIwNS_11char_traitsIwEENS_9allocatorIwEEE6appendEPKw
_ZNSt6__ndk112basic_stringIwNS_11char_traitsIwEENS_9allocatorIwEEE7replaceEmmRKS5_mm
_ZNSt6__ndk112basic_stringIwNS_11char_traitsIwEENS_9allocatorIwEEE6insertENS_11__wrap_iterIPKwEEw
_ZNSt6__ndk112basic_stringIwNS_11char_traitsIwEENS_9allocatorIwEEE6resizeEmw
_ZNSt6__ndk112basic_stringIwNS_11char_traitsIwEENS_9allocatorIwEEE6insertEmRKS5_mm
_ZNSt6__ndk14stoiERKNS_12basic_stringIcNS_11char_traitsIcEENS_9allocatorIcEEEEPmi
_ZTVSt12out_of_range
_ZNSt6__ndk14stoiERKNS_12basic_stringIwNS_11char_traitsIwEENS_9allocatorIwEEEEPmi
_ZNSt6__ndk14stolERKNS_12basic_stringIcNS_11char_traitsIcEENS_9allocatorIcEEEEPmi
_ZNSt6__ndk14stolERKNS_12basic_stringIwNS_11char_traitsIwEENS_9allocatorIwEEEEPmi
_ZNSt6__ndk15stoulERKNS_12basic_stringIcNS_11char_traitsIcEENS_9allocatorIcEEEEPmi
_ZTVSt16invalid_argument
_ZTISt16invalid_argument
_ZNSt16invalid_argumentD1Ev
_ZNSt6__ndk15stoulERKNS_12basic_stringIwNS_11char_traitsIwEENS_9allocatorIwEEEEPmi
wcstoul
_ZNSt6__ndk15stollERKNS_12basic_stringIcNS_11char_traitsIcEENS_9allocatorIcEEEEPmi
strtoll
_ZNSt6__ndk15stollERKNS_12basic_stringIwNS_11char_traitsIwEENS_9allocatorIwEEEEPmi
wcstoll
_ZNSt6__ndk16stoullERKNS_12basic_stringIcNS_11char_traitsIcEENS_9allocatorIcEEEEPmi
strtoull
_ZNSt6__ndk16stoullERKNS_12basic_stringIwNS_11char_traitsIwEENS_9allocatorIwEEEEPmi
wcstoull
_ZNSt6__ndk14stofERKNS_12basic_stringIcNS_11char_traitsIcEENS_9allocatorIcEEEEPm
_ZNSt6__ndk14stofERKNS_12basic_stringIwNS_11char_traitsIwEENS_9allocatorIwEEEEPm
wcstof
_ZNSt6__ndk14stodERKNS_12basic_stringIcNS_11char_traitsIcEENS_9allocatorIcEEEEPm
_ZNSt6__ndk14stodERKNS_12basic_stringIwNS_11char_traitsIwEENS_9allocatorIwEEEEPm
wcstod
_ZNSt6__ndk15stoldERKNS_12basic_stringIcNS_11char_traitsIcEENS_9allocatorIcEEEEPm
strtold
_ZNSt6__ndk15stoldERKNS_12basic_stringIwNS_11char_traitsIwEENS_9allocatorIwEEEEPm
wcstold
_ZNSt6__ndk19to_stringEi
_ZNSt6__ndk19to_stringEl
_ZNSt6__ndk19to_stringEx
_ZNSt6__ndk19to_stringEj
_ZNSt6__ndk19to_stringEm
_ZNSt6__ndk19to_stringEy
_ZNSt6__ndk110to_wstringEi
_ZNSt6__ndk110to_wstringEl
_ZNSt6__ndk110to_wstringEx
_ZNSt6__ndk110to_wstringEj
_ZNSt6__ndk110to_wstringEm
_ZNSt6__ndk110to_wstringEy
_ZNSt6__ndk19to_stringEf
snprintf
_ZNSt6__ndk19to_stringEd
_ZNSt6__ndk19to_stringEe
_ZNSt6__ndk110to_wstringEf
swprintf
_ZNSt6__ndk110to_wstringEd
_ZNSt6__ndk110to_wstringEe
_ZTVSt12length_error
strtol
wcstol
_ZNSt6__ndk112basic_stringIcNS_11char_traitsIcEENS_9allocatorIcEEE4nposE
_ZNSt6__ndk112basic_stringIwNS_11char_traitsIwEENS_9allocatorIwEEE4nposE
_ZNSt6__ndk112basic_stringIcNS_11char_traitsIcEENS_9allocatorIcEEEC1ERKS5_RKS4_
_ZNSt6__ndk112basic_stringIwNS_11char_traitsIwEENS_9allocatorIwEEEC1ERKS5_RKS4_
_ZNSt6__ndk112basic_stringIwNS_11char_traitsIwEENS_9allocatorIwEEED1Ev
_ZNSt6__ndk112basic_stringIwNS_11char_traitsIwEENS_9allocatorIwEEEC1ERKS5_mmRKS4_
_ZTVNSt6__ndk114error_categoryE
_ZNSt6__ndk114error_categoryD0Ev
strerror_r
_ZNSt6__ndk116generic_categoryEv
_ZNSt6__ndk115system_categoryEv
_ZNKSt6__ndk115error_condition7messageEv
_ZNKSt6__ndk110error_code7messageEv
_ZNSt6__ndk112system_error6__initERKNS_10error_codeENS_12basic_stringIcNS_11char_traitsIcEENS_9allocatorIcEEEE
_ZTVNSt6__ndk112system_errorE
_ZNSt6__ndk112system_errorC2ENS_10error_codeE
_ZNSt6__ndk112system_errorC2EiRKNS_14error_categoryERKNS_12basic_stringIcNS_11char_traitsIcEENS_9allocatorIcEEEE
_ZNSt6__ndk112system_errorC2EiRKNS_14error_categoryEPKc
_ZNSt6__ndk112system_errorC2EiRKNS_14error_categoryE
_ZNSt13runtime_errorD2Ev
_ZNSt6__ndk112system_errorD0Ev
vsnprintf
_ZTINSt6__ndk114error_categoryE
_ZTSNSt6__ndk112system_errorE
_ZTSNSt6__ndk114error_categoryE
_ZNSt6__ndk114error_categoryD1Ev
_ZNSt6__ndk112system_errorC1ENS_10error_codeERKNS_12basic_stringIcNS_11char_traitsIcEENS_9allocatorIcEEEE
_ZNSt6__ndk112system_errorC1ENS_10error_codeEPKc
_ZNSt6__ndk112system_errorC1ENS_10error_codeE
_ZNSt6__ndk112system_errorC1EiRKNS_14error_categoryERKNS_12basic_stringIcNS_11char_traitsIcEENS_9allocatorIcEEEE
_ZNSt6__ndk112system_errorC1EiRKNS_14error_categoryEPKc
_ZNSt6__ndk112system_errorC1EiRKNS_14error_categoryE
_ZNSt6__ndk112system_errorD1Ev
_ZNSt6__ndk16threadD2Ev
_ZNSt6__ndk16thread4joinEv
pthread_join
pthread_detach
_ZNSt6__ndk16thread20hardware_concurrencyEv
sysconf
_ZNSt6__ndk111this_thread9sleep_forERKNS_6chrono8durationIxNS_5ratioILl1ELl1000000000EEEEE
nanosleep
_ZNSt6__ndk121__thread_specific_ptrINS_15__thread_structEEC2Ev
pthread_key_create
_ZNSt6__ndk115__thread_structC2Ev
_ZNSt6__ndk115__thread_structD2Ev
_ZNSt6__ndk115__thread_struct27__make_ready_at_thread_exitEPNS_17__assoc_sub_stateE
_ZNSt11logic_errorD2Ev
_ZNKSt11logic_error4whatEv
_ZTISt11logic_error
_ZNKSt6__ndk120__vector_base_commonILb1EE20__throw_out_of_rangeEv
_ZSt14set_unexpectedPFvvE
__cxa_unexpected_handler
_ZSt13set_terminatePFvvE
__cxa_terminate_handler
__cxa_demangle
__cxa_call_unexpected
__cxa_allocate_dependent_exception
__cxa_free_dependent_exception
__cxa_get_globals
_ZSt14get_unexpectedv
_ZSt13get_terminatev
__cxa_get_exception_ptr
__cxa_get_globals_fast
__cxa_current_exception_type
__cxa_uncaught_exception
__emutls_get_address
__sF
vfprintf
fputc
android_set_abort_message
openlog
syslog
closelog
_ZSt10unexpectedv
_ZSt15set_new_handlerPFvvE
__cxa_new_handler
_ZTVSt13bad_exception
_ZTISt13bad_exception
_ZNSt13bad_exceptionD1Ev
__cxa_deleted_virtual
_ZTIN10__cxxabiv116__shim_type_infoE
_ZTIN10__cxxabiv117__class_type_infoE
__dynamic_cast
_ZTIN10__cxxabiv117__pbase_type_infoE
_ZTSDn
_ZTIN10__cxxabiv119__pointer_type_infoE
_ZTSv
_ZTIN10__cxxabiv120__function_type_infoE
_ZTIN10__cxxabiv129__pointer_to_member_type_infoE
_ZTSN10__cxxabiv116__shim_type_infoE
_ZNSt9type_infoD2Ev
_ZTISt9type_info
_ZTSN10__cxxabiv117__class_type_infoE
_ZTSN10__cxxabiv117__pbase_type_infoE
_ZTSN10__cxxabiv119__pointer_type_infoE
_ZTSN10__cxxabiv120__function_type_infoE
_ZTSN10__cxxabiv129__pointer_to_member_type_infoE
_ZTVN10__cxxabiv116__shim_type_infoE
_ZTVN10__cxxabiv123__fundamental_type_infoE
_ZTIN10__cxxabiv123__fundamental_type_infoE
_ZTSN10__cxxabiv123__fundamental_type_infoE
_ZTIv
_ZTSPv
_ZTIPv
_ZTVN10__cxxabiv119__pointer_type_infoE
_ZTSPKv
_ZTIPKv
_ZTIDn
_ZTSPDn
_ZTIPDn
_ZTSPKDn
_ZTIPKDn
_ZTSb
_ZTIb
_ZTSPb
_ZTIPb
_ZTSPKb
_ZTIPKb
_ZTSw
_ZTIw
_ZTSPw
_ZTIPw
_ZTSPKw
_ZTIPKw
_ZTSc
_ZTIc
_ZTSPc
_ZTIPc
_ZTSPKc
_ZTIPKc
_ZTSh
_ZTIh
_ZTSPh
_ZTIPh
_ZTSPKh
_ZTIPKh
_ZTSa
_ZTIa
_ZTSPa
_ZTIPa
_ZTSPKa
_ZTIPKa
_ZTSs
_ZTIs
_ZTSPs
_ZTIPs
_ZTSPKs
_ZTIPKs
_ZTSt
_ZTIt
_ZTSPt
_ZTIPt
_ZTSPKt
_ZTIPKt
_ZTSi
_ZTIi
_ZTSPi
_ZTIPi
_ZTSPKi
_ZTIPKi
_ZTSj
_ZTIj
_ZTSPj
_ZTIPj
_ZTSPKj
_ZTIPKj
_ZTSl
_ZTIl
_ZTSPl
_ZTIPl
_ZTSPKl
_ZTIPKl
_ZTSm
_ZTIm
_ZTSPm
_ZTIPm
_ZTSPKm
_ZTIPKm
_ZTSx
_ZTIx
_ZTSPx
_ZTIPx
_ZTSPKx
_ZTIPKx
_ZTSy
_ZTIy
_ZTSPy
_ZTIPy
_ZTSPKy
_ZTIPKy
_ZTSn
_ZTIn
_ZTSPn
_ZTIPn
_ZTSPKn
_ZTIPKn
_ZTSo
_ZTIo
_ZTSPo
_ZTIPo
_ZTSPKo
_ZTIPKo
_ZTSDh
_ZTIDh
_ZTSPDh
_ZTIPDh
_ZTSPKDh
_ZTIPKDh
_ZTSf
_ZTIf
_ZTSPf
_ZTIPf
_ZTSPKf
_ZTIPKf
_ZTSd
_ZTId
_ZTSPd
_ZTIPd
_ZTSPKd
_ZTIPKd
_ZTSe
_ZTIe
_ZTSPe
_ZTIPe
_ZTSPKe
_ZTIPKe
_ZTSg
_ZTIg
_ZTSPg
_ZTIPg
_ZTSPKg
_ZTIPKg
_ZTSDu
_ZTIDu
_ZTSPDu
_ZTIPDu
_ZTSPKDu
_ZTIPKDu
_ZTSDs
_ZTIDs
_ZTSPDs
_ZTIPDs
_ZTSPKDs
_ZTIPKDs
_ZTSDi
_ZTIDi
_ZTSPDi
_ZTIPDi
_ZTSPKDi
_ZTIPKDi
_ZTVN10__cxxabiv117__array_type_infoE
_ZTIN10__cxxabiv117__array_type_infoE
_ZTSN10__cxxabiv117__array_type_infoE
_ZTVN10__cxxabiv120__function_type_infoE
_ZTVN10__cxxabiv116__enum_type_infoE
_ZTIN10__cxxabiv116__enum_type_infoE
_ZTSN10__cxxabiv116__enum_type_infoE
_ZTIN10__cxxabiv120__si_class_type_infoE
_ZTSN10__cxxabiv120__si_class_type_infoE
_ZTIN10__cxxabiv121__vmi_class_type_infoE
_ZTSN10__cxxabiv121__vmi_class_type_infoE
_ZTVN10__cxxabiv117__pbase_type_infoE
_ZTVN10__cxxabiv129__pointer_to_member_type_infoE
_ZNSt9exceptionD0Ev
_ZNKSt9exception4whatEv
_ZNSt13bad_exceptionD0Ev
_ZNKSt13bad_exception4whatEv
_ZNSt9bad_allocC2Ev
_ZTVSt9bad_alloc
_ZNSt9bad_allocD0Ev
_ZNKSt9bad_alloc4whatEv
_ZNSt20bad_array_new_lengthC2Ev
_ZTVSt20bad_array_new_length
_ZNSt20bad_array_new_lengthD0Ev
_ZNKSt20bad_array_new_length4whatEv
_ZTISt20bad_array_new_length
_ZTVSt9exception
_ZTSSt9exception
_ZTSSt13bad_exception
_ZTSSt9bad_alloc
_ZTSSt20bad_array_new_length
_ZNSt9exceptionD1Ev
_ZNSt13bad_exceptionD2Ev
_ZNSt9bad_allocD2Ev
_ZNSt20bad_array_new_lengthC1Ev
_ZNSt20bad_array_new_lengthD2Ev
_ZNSt20bad_array_new_lengthD1Ev
_ZNSt11logic_errorD0Ev
_ZNSt13runtime_errorD0Ev
_ZNSt12domain_errorD0Ev
_ZNSt16invalid_argumentD0Ev
_ZNSt12length_errorD0Ev
_ZNSt12out_of_rangeD0Ev
_ZNSt11range_errorD0Ev
_ZNSt14overflow_errorD0Ev
_ZNSt15underflow_errorD0Ev
_ZTVSt12domain_error
_ZTISt12domain_error
_ZTSSt12domain_error
_ZTSSt11logic_error
_ZTSSt16invalid_argument
_ZTSSt12length_error
_ZTSSt12out_of_range
_ZTVSt11range_error
_ZTISt11range_error
_ZTSSt11range_error
_ZTSSt13runtime_error
_ZTVSt14overflow_error
_ZTISt14overflow_error
_ZTSSt14overflow_error
_ZTVSt15underflow_error
_ZTISt15underflow_error
_ZTSSt15underflow_error
_ZNSt11logic_errorD1Ev
_ZNSt12domain_errorD2Ev
_ZNSt12domain_errorD1Ev
_ZNSt16invalid_argumentD2Ev
_ZNSt12length_errorD2Ev
_ZNSt12out_of_rangeD2Ev
_ZNSt11range_errorD2Ev
_ZNSt11range_errorD1Ev
_ZNSt14overflow_errorD2Ev
_ZNSt14overflow_errorD1Ev
_ZNSt15underflow_errorD2Ev
_ZNSt15underflow_errorD1Ev
_ZNSt9type_infoD0Ev
_ZNSt8bad_castC2Ev
_ZTVSt8bad_cast
_ZNSt8bad_castD2Ev
_ZNSt8bad_castD0Ev
_ZNKSt8bad_cast4whatEv
_ZNSt10bad_typeidC2Ev
_ZTVSt10bad_typeid
_ZNSt10bad_typeidD2Ev
_ZNSt10bad_typeidD0Ev
_ZNKSt10bad_typeid4whatEv
_ZTISt10bad_typeid
_ZTVSt9type_info
_ZTSSt9type_info
_ZTSSt8bad_cast
_ZTSSt10bad_typeid
_ZNSt9type_infoD1Ev
_ZNSt10bad_typeidC1Ev
_ZNSt10bad_typeidD1Ev
pthread_once
pthread_key_delete
fprintf
pthread_rwlock_wrlock
pthread_rwlock_unlock
pthread_rwlock_rdlock
libdl.so
LIBC
libc.so
liblog.so
libm.so
libml_dumper.so
il2cpp_get_corlib
il2cpp_add_internal_call
il2cpp_class_has_parent
il2cpp_class_from_name
il2cpp_class_array_element_size
il2cpp_gchandle_free
il2cpp_type_get_name
il2cpp_type_get_attrs
public 
static 
interface 
enum 
__loader_dlopen
/vendor/lib64/egl/
/system/build.prop
%.0Lf
__cxa_guard_release
covariant return thunk to 
operator^=
operator<=
unknown pointer encoding
unsupported restore location for float register
il2cpp_class_get_data_size
il2cpp_gc_collect
il2cpp_gc_is_incremental
il2cpp_stop_gc_world
il2cpp_unity_liveness_calculation_from_root
il2cpp_method_get_class
il2cpp_thread_get_top_frame
il2cpp_thread_get_stack_depth
il2cpp_set_default_thread_affinity
abstract 
dumping...
app_process64
__dl__ZL10dlopen_extPKciPK17android_dlextinfoPv
%a %b %d %H:%M:%S %Y
time_put_byname failed to construct for 
decltype(
typeid (
{...}
operator>>=
operator<=>
long
char32_t
libunwind: malformed DW_CFA_register DWARF unwind, reg2 too big
libunwind: malformed DW_CFA_val_offset_sf DWARF unwind, reg too big
currentApplication
GetCreatedJavaVMs error
api level: %d
il2cpp_class_get_events
il2cpp_class_get_name
il2cpp_class_is_interface
il2cpp_gc_start_incremental_collection
il2cpp_method_get_param_count
il2cpp_type_get_object
il2cpp_type_is_static
il2cpp_image_get_filename
il2cpp_custom_attrs_from_method
) { }
set; 
miss Assembly::GetTypes
/system/bin/linker64
__dl__Z8__dlopenPKciPKv
/odm/lib64/
collate_byname<char>::collate_byname failed to construct for 
stoll
thread::detach failed
The state of the promise has already been set.
throw
wchar_t
'lambda
operator~
operator"" 
std::basic_string
decltype(auto)
Deleted virtual function called!
std::exception
il2cpp_free
il2cpp_class_from_system_type
il2cpp_class_get_properties
il2cpp_field_set_value
il2cpp_field_static_get_value
il2cpp_gc_set_external_wbarrier_tracker
il2cpp_unity_liveness_calculation_from_statics
Waiting for il2cpp_init...
ro.build.version.sdk=
condition_variable::timed wait: mutex not locked
terminating with %s exception of type %s
const_cast
unsigned __int128
operator delete
operator>=
unwind_phase2
unsupported arm64 register
libunwind: malformed DW_CFA_def_cfa DWARF unwind, reg too big
getSLEB128
getSavedRegister
()Landroid/content/pm/ApplicationInfo;
NativeBridgeLoadLibrary %p
il2cpp_set_memory_callbacks
il2cpp_gc_set_max_time_slice_ns
il2cpp_string_intern
il2cpp_is_vm_thread
il2cpp_capture_memory_snapshot
il2cpp_custom_attrs_construct
out 
[Serializable]
class 
CrcGenerateTable
XzUnpacker_Construct
Tuesday
March
typeinfo name for 
operator new
) ? (
 [enable_if:
std::nullptr_t
objc_object
std::bad_alloc
std::bad_typeid
getEncodedP
()Landroid/app/Application;
il2cpp_shutdown
il2cpp_class_is_generic
il2cpp_method_get_from_reflection
il2cpp_method_get_param_name
il2cpp_object_new
il2cpp_type_get_class_or_element_class
; // 0x
0123456789
numpunct_byname<char>::numpunct_byname failed to construct for 
recursive_mutex lock failed
The associated promise has been destructed prior to the associated state becoming ready.
__cxa_guard_abort
typeinfo for 
reference temporary for 
unsigned char
operator&=
operator*=
std::basic_string<char, std::char_traits<char>, std::allocator<char> >
getSavedFloatRegister
libhoudini.so
il2cpp_resolve_icall
il2cpp_class_get_flags
il2cpp_unhandled_exception
il2cpp_gchandle_new_weakref
il2cpp_array_object_header_size
il2cpp_unity_liveness_allocate_struct
il2cpp_runtime_unhandled_exception_policy_set
il2cpp_type_get_type
// RVA: 0x VA: 0x0
sealed 
[vdso]
%lx-%lx r
/vendor/lib64/hw/
Unknown error %d
__thread_specific_ptr construction failed
operator delete[]
std::string
JNI_GetCreatedJavaVMs %p
JNI_OnLoad %p
il2cpp_set_temp_dir
il2cpp_class_get_image
il2cpp_field_get_value_object
il2cpp_method_is_generic
il2cpp_method_is_inflated
il2cpp_monitor_pulse
il2cpp_current_thread_get_top_frame
il2cpp_image_get_name
il2cpp_class_get_userdata_offset
// Namespace: 
libcsharp.so
Assembly::Load: %p
XzUnpacker_Free
money_get error
false
auto
unsigned short
%LaL
operator/
operator|
exynos9810
libunwind: malformed DW_CFA_val_offset DWARF unwind, reg (%lu) out of range
FDE has zero length
FDE is really a CIE
hack thread: %d
il2cpp_init_utf16
il2cpp_alloc
il2cpp_bounded_array_class_get
il2cpp_class_get_field_from_name
il2cpp_class_get_methods
il2cpp_type_get_name_chunked
il2cpp_class_has_references
il2cpp_exception_from_name_msg
il2cpp_get_exception_argument_null
il2cpp_field_static_set_value
il2cpp_gc_disable
il2cpp_object_get_class
il2cpp_runtime_invoke_convert_args
 VA: 0x
allocator<T>::allocate(size_t n) 'n' exceeds maximum supported size
%m/%d/%y
The future has already been retrieved from the promise or packaged_task.
delete
operator&
operator%
operator>>
) : (
[abi:
libunwind: malformed DW_CFA_same_value DWARF unwind, reg too big
DW_EH_PE_aligned pointer encoding not supported
truncated sleb128 expression
com.mobile.legends:UnityKillsMe
nb %p
arm path %s
il2cpp_init
il2cpp_monitor_pulse_all
il2cpp_runtime_class_init
// RVA: 0x
readonly 
// Dll : 
collate_byname<wchar_t>::collate_byname(size_t refs) failed to construct for 
Saturday
April
August
condition_variable::wait: mutex not locked
terminate_handler unexpectedly returned
signed char
sizeof...(
basic_ostream
std::ostream
std::iostream
long long
noexcept(
unsupported restore location for register
native bridge: %s
il2cpp_set_commandline_arguments
il2cpp_array_element_size
il2cpp_class_num_fields
il2cpp_field_get_offset
il2cpp_start_gc_world
il2cpp_thread_current
il2cpp_image_get_class
__cxa_guard_acquire detected recursive initialization
operator new[]
operator!
std::basic_ostream<char, std::char_traits<char> >
__float128
char16_t
during phase1 personality function said it would stop here, but now in phase2 it did not stop here
libunwind: malformed DW_CFA_GNU_negative_offset_extended DWARF unwind, reg too big
liblogic.so
getApplicationInfo
ro.dalvik.vm.native.bridge
il2cpp_class_get_parent
il2cpp_class_get_assemblyname
il2cpp_field_get_type
il2cpp_gc_set_external_allocation_tracker
il2cpp_offset_of_array_length_in_array_object_header
il2cpp_unity_liveness_free_struct
il2cpp_method_get_return_type
il2cpp_monitor_exit
il2cpp_string_new_len
Assembly
w+be
ios_base::clear
January
October
typename 
operator()
operator>
operator[]
operator->
unsigned long
std::bad_cast
setRegister
libunwind: malformed DW_CFA_offset_extended DWARF unwind, reg too big
getApplicationInfo not found
no need NativeBridge
NativeBridgeItf
il2cpp_array_new_full
il2cpp_class_enum_basetype
il2cpp_class_get_nested_types
il2cpp_class_get_property_from_name
il2cpp_domain_get_assemblies
il2cpp_method_get_object
il2cpp_type_equals
il2cpp_type_get_assembly_qualified_name
override 
virtual 
time_get_byname failed to construct for 
stoul
> typename 
(anonymous namespace)
operator==
 complex
CIE start does not match
CIE version is not 1 or 3
JNI_OnLoad
il2cpp_class_value_size
il2cpp_thread_detach
il2cpp_thread_get_all_attached_threads
[In] 
const 
a+be
XzUnpacker_IsStreamWasFinished
%s failed to broadcast
vtable for 
VTT for 
alignof (
noexcept (
char
operator<
operator->*
unsigned int
DW_EH_PE_funcrel pointer encoding not supported
libunwind: Unsupported .eh_frame_hdr version
/lib/x86
arm handle %p
ro.build.version.sdk
il2cpp_class_is_assignable_from
il2cpp_class_is_blittable
il2cpp_native_stack_trace
il2cpp_gc_foreach_heap
il2cpp_unity_liveness_finalize
il2cpp_monitor_wait
il2cpp_string_new_utf16
il2cpp_debug_get_method_info
il2cpp_custom_attrs_free
moneypunct_byname failed to construct for 
Friday
: out of range
__cxa_guard_acquire
libc++abi
dynamic_cast
short
 ... 
string
ostream
long double
detect game: %s
thread constructor failed
libart.so
NativeBridgeGetTrampoline %p
il2cpp_array_new
il2cpp_stats_dump_to_file
il2cpp_raise_exception
il2cpp_method_get_declaring_type
il2cpp_custom_attrs_from_class
Version greater than 2018.3
System.Reflection
/files/dump.cs
/system/lib64
/odm/lib64/vndk-sp/
Crc64GenerateTable
Thursday
unexpected
guard variable for 
true
operator?
bad_array_new_length
libunwind: %s - %s
lib dir %s
application class not found
il2cpp_class_get_type_token
il2cpp_class_has_attribute
il2cpp_class_get_static_field_data
il2cpp_gc_set_mode
il2cpp_gc_wbarrier_set_field
il2cpp_method_get_name
il2cpp_monitor_try_enter
il2cpp_image_get_assembly
il2cpp_custom_attrs_has_attr
il2cpp_handle: %p
write dump file
/vendor/lib64/vndk-sp/
unspecified iostream_category error
generic
virtual thunk to 
operator*
operator||
istream
char8_t
DW_OP_deref_size with bad size
Unknown DWARF encoding for search table.
il2cpp_class_get_element_class
il2cpp_class_get_rank
il2cpp_field_is_literal
il2cpp_gc_enable
il2cpp_gc_get_heap_size
il2cpp_method_get_param
il2cpp_type_is_pointer_type
protected internal 
Monday
February
mutex lock failed
unspecified system_category error
unexpected_handler unexpectedly returned
construction vtable for 
__int128
template<
operator<<
operator+
operator+=
operator++
string literal
unsigned long long
 imaginary
libunwind: malformed DW_CFA_expression DWARF unwind, reg too big
il2cpp_set_data_dir
il2cpp_set_commandline_arguments_utf16
il2cpp_class_get_fields
il2cpp_class_get_namespace
il2cpp_class_instance_size
il2cpp_field_set_value_object
il2cpp_register_log_callback
il2cpp_is_debugger_attached
il2cpp_class_set_userdata
protected 
sealed override 
Failed to initialize il2cpp api.
miss Assembly::Load
Assembly::GetTypes: %p
__dl__ZL10g_dl_mutex
Sunday
: no conversion
operator=
operator/=
bool
evaluateExpression
libil2cpp.so not found in thread %d
il2cpp_array_length
il2cpp_class_is_inflated
il2cpp_class_is_abstract
il2cpp_property_get_parent
il2cpp_object_get_virtual_method
il2cpp_value_box
il2cpp_thread_attach
[Out] 
XzUnpacker_Code
locale constructed with null
%I:%M:%S %p
Wednesday
July
bad_weak_ptr
operator^
 restrict
decimal64
libunwind: malformed DW_CFA_undefined DWARF unwind, reg too big
il2cpp_class_get_bitmap
il2cpp_field_get_name
il2cpp_gchandle_new
il2cpp_image_get_class_count
// Image 
%s/%s
iostream
condition_variable wait failed
stoull
string_view::substr
terminating with %s exception of type %s: %s
non-virtual thunk to 
std::basic_istream<char, std::char_traits<char> >
pixel vector[
union
_Unwind_Resume() can't return
libunwind: malformed DW_CFA_register DWARF unwind, reg too big
il2cpp_class_get_method_from_name
il2cpp_class_is_enum
il2cpp_gc_get_max_time_slice_ns
il2cpp_gchandle_get_target
il2cpp_method_get_token
il2cpp_property_get_set_method
il2cpp_monitor_try_wait
il2cpp_string_length
il2cpp_thread_walk_frame_stack
il2cpp_custom_attrs_get_attr
extern 
/proc/self/maps
.symtab
.gnu_debugdata
/system/lib64/liblzma.so
system
yptn
operator%=
 const
DW_OP_fbreg not implemented
nativeLibraryDir not found
il2cpp_array_get_byte_length
il2cpp_class_get_interfaces
il2cpp_class_get_declaring_type
il2cpp_class_from_type
il2cpp_gc_free_fixed
il2cpp_object_header_size
il2cpp_method_get_flags
// Fields
Load
/vendor/lib64/
ctype_byname<char>::ctype_byname failed to construct for 
ctype_byname<wchar_t>::ctype_byname failed to construct for 
June
terminating with %s foreign exception
uncaught
operator--
operator|=
std::basic_iostream<char, std::char_traits<char> >
_Unwind_Resume
libunwind: malformed DW_CFA_def_cfa_sf DWARF unwind, reg too big
il2cpp_class_is_valuetype
il2cpp_stats_get_value
il2cpp_domain_get
il2cpp_offset_of_array_bounds_in_array_object_header
il2cpp_property_get_flags
il2cpp_object_get_size
il2cpp_current_thread_get_frame_at
il2cpp_current_thread_get_stack_depth
il2cpp_set_find_plugin_callback
GetTypes
recursive_timed_mutex lock limit reached
'block-literal'
operator-
basic_istream
std::istream
double
il2cpp_set_config_dir
il2cpp_array_new_specific
il2cpp_domain_assembly_open
il2cpp_gc_alloc_fixed
il2cpp_object_unbox
il2cpp_runtime_invoke
/libart.so
%H:%M:%S
November
condition_variable timed_wait failed
%s failed to acquire mutex
invocation function for block in 
static_cast
sizeof... (
operator-=
libunwind: malformed DW_CFA_offset_extended_sf DWARF unwind, reg too big
getULEB128
malformed uleb128 expression
DWARF opcode not implemented
Perfare
Ljava/lang/String;
il2cpp_class_get_bitmap_size
il2cpp_gc_collect_a_little
il2cpp_gc_has_strict_wbarriers
il2cpp_gchandle_foreach_get_target
il2cpp_method_has_attribute
il2cpp_string_is_interned
il2cpp_unity_install_unitytls_interface
September
Operation not permitted on an object without an associated state.
%s failed to release mutex
nullptr
operator<<=
::operator 
enum
libunwind: malformed DW_CFA_val_expression DWARF unwind, reg too big
NativeBridgeLoadLibraryExt %p
il2cpp_class_from_il2cpp_type
il2cpp_method_is_instance
il2cpp_runtime_object_init_exception
il2cpp_current_thread_walk_frame_stack
il2cpp_image_get_entry_point
il2cpp_debugger_set_agent_options
/system/bin/app_process64
vector
terminating
reinterpret_cast
DW_EH_PE_textrel pointer encoding not supported
truncated uleb128 expression
android/app/ActivityThread
nativeLibraryDir
currentApplication not found
GetLibDir error
api not found %s
il2cpp_set_config
il2cpp_property_get_get_method
il2cpp_string_chars
il2cpp_string_new
il2cpp_free_captured_memory_snapshot
get; 
recursive_mutex constructor failed
basic_string
operator 
throw 
void
float
decimal128
ro.arch
libunwind: malformed DW_CFA_restore_extended DWARF unwind, reg too big
getTableEntrySize
ActivityThread not found
il2cpp_field_has_attribute
il2cpp_gc_get_used_size
il2cpp_runtime_object_init
private 
internal 
ref 
// Properties
fopen
Version less than 2018.3
r+be
December
thread::join failed
operator&&
decimal32
CIE ID is not zero
JNI_GetCreatedJavaVMs
anon
il2cpp_set_config_utf16
il2cpp_class_for_each
il2cpp_field_get_value
il2cpp_gc_is_disabled
il2cpp_allocation_granularity
il2cpp_property_get_name
il2cpp_monitor_enter
il2cpp_string_new_wrapper
il2cpp_thread_get_frame_at
il2cpp_type_is_byref
 // unknown property 
dump done!
linker64
__dl__Z9do_dlopenPKciPK17android_dlextinfoPv
unspecified future_errc value
unique_lock::unlock: not locked
thread-local wrapper routine for 
thread-local initialization routine for 
sizeof (
operator!=
__uuidof(
std::allocator
allocator
struct
libunwind: malformed DW_CFA_def_cfa_register DWARF unwind, reg too big
Can't binary search on variable length encoded data.
/proc/self/fd/%d
il2cpp_assembly_get_image
il2cpp_class_is_subclass_of
il2cpp_class_get_type
il2cpp_format_exception
il2cpp_field_get_flags
il2cpp_field_get_parent
il2cpp_override_stack_backtrace
struct 
codecvt_byname<wchar_t, char, mbstate_t>::codecvt_byname failed to construct for 
numpunct_byname<wchar_t>::numpunct_byname failed to construct for 
locale not supported
stold
terminate_handler unexpectedly threw an exception
operator,
decimal16
noexcept
getRegister
DW_EH_PE_datarel is invalid with a datarelBase of 0
unknown register
il2cpp_array_class_get
il2cpp_format_stack_trace
il2cpp_register_debugger_agent_transport
// Methods
il2cpp_base: %lx
/libc.so
unspecified generic_category error
future
basic_iostream
std::
 volatile
throw(
Pure virtual function called!
std::bad_exception
DW_OP_piece not implemented
 $(,048<
????????Q
NSt6__ndk18ios_baseE
NSt6__ndk18ios_base7failureE
NSt6__ndk19basic_iosIcNS_11char_traitsIcEEEE
NSt6__ndk19basic_iosIwNS_11char_traitsIwEEEE
NSt6__ndk115basic_streambufIcNS_11char_traitsIcEEEE
NSt6__ndk115basic_streambufIwNS_11char_traitsIwEEEE
NSt6__ndk113basic_istreamIcNS_11char_traitsIcEEEE
NSt6__ndk113basic_istreamIwNS_11char_traitsIwEEEE
NSt6__ndk113basic_ostreamIcNS_11char_traitsIcEEEE
NSt6__ndk113basic_ostreamIwNS_11char_traitsIwEEEE
NSt6__ndk114basic_iostreamIcNS_11char_traitsIcEEEE
NSt6__ndk119__iostream_categoryE
St16nested_exception
wwwwwwwwww#wwwwwwwwDwwwwwwwwwww
wwwwwwwwww#wwwwwwwwDwwwwwwwwwww
0123456789abcdefABCDEFxX+-pPiInN
%I:%M:%S %p%H:%M
NSt6__ndk16locale5facetE
NSt6__ndk15ctypeIwEE
NSt6__ndk110ctype_baseE
NSt6__ndk17codecvtIcc9mbstate_tEE
NSt6__ndk112codecvt_baseE
NSt6__ndk17codecvtIDsc9mbstate_tEE
NSt6__ndk17codecvtIDic9mbstate_tEE
NSt6__ndk116__narrow_to_utf8ILm16EEE
NSt6__ndk116__narrow_to_utf8ILm32EEE
NSt6__ndk117__widen_from_utf8ILm16EEE
NSt6__ndk117__widen_from_utf8ILm32EEE
NSt6__ndk114__codecvt_utf8IwEE
NSt6__ndk17codecvtIwc9mbstate_tEE
NSt6__ndk114__codecvt_utf8IDsEE
NSt6__ndk114__codecvt_utf8IDiEE
NSt6__ndk115__codecvt_utf16IwLb0EEE
NSt6__ndk115__codecvt_utf16IwLb1EEE
NSt6__ndk115__codecvt_utf16IDsLb0EEE
NSt6__ndk115__codecvt_utf16IDsLb1EEE
NSt6__ndk115__codecvt_utf16IDiLb0EEE
NSt6__ndk115__codecvt_utf16IDiLb1EEE
NSt6__ndk120__codecvt_utf8_utf16IwEE
NSt6__ndk120__codecvt_utf8_utf16IDiEE
NSt6__ndk120__codecvt_utf8_utf16IDsEE
NSt6__ndk16locale5__impE
NSt6__ndk114collate_bynameIcEE
NSt6__ndk17collateIcEE
NSt6__ndk114collate_bynameIwEE
NSt6__ndk17collateIwEE
NSt6__ndk15ctypeIcEE
NSt6__ndk112ctype_bynameIcEE
NSt6__ndk112ctype_bynameIwEE
NSt6__ndk18numpunctIcEE
NSt6__ndk18numpunctIwEE
NSt6__ndk115numpunct_bynameIcEE
NSt6__ndk115numpunct_bynameIwEE
NSt6__ndk17num_getIcNS_19istreambuf_iteratorIcNS_11char_traitsIcEEEEEE
NSt6__ndk19__num_getIcEE
NSt6__ndk114__num_get_baseE
NSt6__ndk17num_getIwNS_19istreambuf_iteratorIwNS_11char_traitsIwEEEEEE
NSt6__ndk19__num_getIwEE
NSt6__ndk17num_putIcNS_19ostreambuf_iteratorIcNS_11char_traitsIcEEEEEE
NSt6__ndk19__num_putIcEE
NSt6__ndk114__num_put_baseE
NSt6__ndk17num_putIwNS_19ostreambuf_iteratorIwNS_11char_traitsIwEEEEEE
NSt6__ndk19__num_putIwEE
NSt6__ndk18time_getIcNS_19istreambuf_iteratorIcNS_11char_traitsIcEEEEEE
NSt6__ndk19time_baseE
NSt6__ndk120__time_get_c_storageIcEE
NSt6__ndk18time_getIwNS_19istreambuf_iteratorIwNS_11char_traitsIwEEEEEE
NSt6__ndk120__time_get_c_storageIwEE
NSt6__ndk115time_get_bynameIcNS_19istreambuf_iteratorIcNS_11char_traitsIcEEEEEE
NSt6__ndk118__time_get_storageIcEE
NSt6__ndk110__time_getE
NSt6__ndk115time_get_bynameIwNS_19istreambuf_iteratorIwNS_11char_traitsIwEEEEEE
NSt6__ndk118__time_get_storageIwEE
NSt6__ndk18time_putIcNS_19ostreambuf_iteratorIcNS_11char_traitsIcEEEEEE
NSt6__ndk110__time_putE
NSt6__ndk18time_putIwNS_19ostreambuf_iteratorIwNS_11char_traitsIwEEEEEE
NSt6__ndk115time_put_bynameIcNS_19ostreambuf_iteratorIcNS_11char_traitsIcEEEEEE
NSt6__ndk115time_put_bynameIwNS_19ostreambuf_iteratorIwNS_11char_traitsIwEEEEEE
NSt6__ndk110moneypunctIcLb0EEE
NSt6__ndk110money_baseE
NSt6__ndk110moneypunctIcLb1EEE
NSt6__ndk110moneypunctIwLb0EEE
NSt6__ndk110moneypunctIwLb1EEE
NSt6__ndk117moneypunct_bynameIcLb0EEE
NSt6__ndk117moneypunct_bynameIcLb1EEE
NSt6__ndk117moneypunct_bynameIwLb0EEE
NSt6__ndk117moneypunct_bynameIwLb1EEE
NSt6__ndk19money_getIcNS_19istreambuf_iteratorIcNS_11char_traitsIcEEEEEE
NSt6__ndk111__money_getIcEE
NSt6__ndk19money_getIwNS_19istreambuf_iteratorIwNS_11char_traitsIwEEEEEE
NSt6__ndk111__money_getIwEE
NSt6__ndk19money_putIcNS_19ostreambuf_iteratorIcNS_11char_traitsIcEEEEEE
NSt6__ndk111__money_putIcEE
NSt6__ndk19money_putIwNS_19ostreambuf_iteratorIwNS_11char_traitsIwEEEEEE
NSt6__ndk111__money_putIwEE
NSt6__ndk18messagesIcEE
NSt6__ndk113messages_baseE
NSt6__ndk18messagesIwEE
NSt6__ndk115messages_bynameIcEE
NSt6__ndk115messages_bynameIwEE
NSt6__ndk114codecvt_bynameIcc9mbstate_tEE
NSt6__ndk114codecvt_bynameIwc9mbstate_tEE
NSt6__ndk114codecvt_bynameIDsc9mbstate_tEE
NSt6__ndk114codecvt_bynameIDic9mbstate_tEE
NSt6__ndk115__time_get_tempIcEE
NSt6__ndk115__time_get_tempIwEE
NSt6__ndk112bad_weak_ptrE
NSt6__ndk114__shared_countE
NSt6__ndk119__shared_weak_countE
????????????????
???~?
?o??#
?]xEc
d????
#??00010203040506070809101112131415161718192021222324252627282930313233343536373839404142434445464748495051525354555657585960616263646566676869707172737475767778798081828384858687888990919293949596979899NSt6__ndk112system_errorE
NSt6__ndk114error_categoryE
NSt6__ndk112__do_messageE
NSt6__ndk124__generic_error_categoryE
NSt6__ndk123__system_error_categoryE
NSt6__ndk112future_errorE
NSt6__ndk117__assoc_sub_stateE
NSt6__ndk123__future_error_categoryE
????a???????????
'?2????<Pcjv??
""i""""""""""""""""""""""""""""{""m
66666666666666666?6666666666666tx
rrrr?rrrrrrrrrrrrr?rrrrrrrrrrrr?
?????<?????
??????????
 (N12_GLOBAL__N_116itanium_demangle11SpecialNameE
N12_GLOBAL__N_116itanium_demangle4NodeE
N12_GLOBAL__N_116itanium_demangle21CtorVtableSpecialNameE
N12_GLOBAL__N_116itanium_demangle8NameTypeE
N12_GLOBAL__N_116itanium_demangle10NestedNameE
N12_GLOBAL__N_116itanium_demangle24ForwardTemplateReferenceE
N12_GLOBAL__N_116itanium_demangle14IntegerLiteralE
N12_GLOBAL__N_116itanium_demangle8BoolExprE
N12_GLOBAL__N_116itanium_demangle16FloatLiteralImplIfEE
N12_GLOBAL__N_116itanium_demangle16FloatLiteralImplIdEE
N12_GLOBAL__N_116itanium_demangle16FloatLiteralImplIeEE
N12_GLOBAL__N_116itanium_demangle13StringLiteralE
N12_GLOBAL__N_116itanium_demangle15UnnamedTypeNameE
N12_GLOBAL__N_116itanium_demangle26SyntheticTemplateParamNameE
N12_GLOBAL__N_116itanium_demangle21TypeTemplateParamDeclE
N12_GLOBAL__N_116itanium_demangle24NonTypeTemplateParamDeclE
N12_GLOBAL__N_116itanium_demangle25TemplateTemplateParamDeclE
N12_GLOBAL__N_116itanium_demangle21TemplateParamPackDeclE
N12_GLOBAL__N_116itanium_demangle15ClosureTypeNameE
N12_GLOBAL__N_116itanium_demangle10LambdaExprE
N12_GLOBAL__N_116itanium_demangle15IntegerCastExprE
N12_GLOBAL__N_116itanium_demangle13FunctionParamE
N12_GLOBAL__N_116itanium_demangle8FoldExprE
N12_GLOBAL__N_116itanium_demangle22ParameterPackExpansionE
N12_GLOBAL__N_116itanium_demangle10BinaryExprE
N12_GLOBAL__N_116itanium_demangle10PrefixExprE
N12_GLOBAL__N_116itanium_demangle8CastExprE
N12_GLOBAL__N_116itanium_demangle8CallExprE
N12_GLOBAL__N_116itanium_demangle14ConversionExprE
N12_GLOBAL__N_116itanium_demangle10DeleteExprE
N12_GLOBAL__N_116itanium_demangle13QualifiedNameE
N12_GLOBAL__N_116itanium_demangle8DtorNameE
N12_GLOBAL__N_116itanium_demangle22ConversionOperatorTypeE
N12_GLOBAL__N_116itanium_demangle15LiteralOperatorE
N12_GLOBAL__N_116itanium_demangle19GlobalQualifiedNameE
N12_GLOBAL__N_116itanium_demangle10MemberExprE
N12_GLOBAL__N_116itanium_demangle18ArraySubscriptExprE
N12_GLOBAL__N_116itanium_demangle10BracedExprE
N12_GLOBAL__N_116itanium_demangle15BracedRangeExprE
N12_GLOBAL__N_116itanium_demangle12InitListExprE
N12_GLOBAL__N_116itanium_demangle11PostfixExprE
N12_GLOBAL__N_116itanium_demangle7NewExprE
N12_GLOBAL__N_116itanium_demangle13EnclosingExprE
N12_GLOBAL__N_116itanium_demangle15ConditionalExprE
N12_GLOBAL__N_116itanium_demangle19SizeofParamPackExprE
N12_GLOBAL__N_116itanium_demangle13NodeArrayNodeE
N12_GLOBAL__N_116itanium_demangle9ThrowExprE
N12_GLOBAL__N_116itanium_demangle10UUIDOfExprE
N12_GLOBAL__N_116itanium_demangle27ExpandedSpecialSubstitutionE
N12_GLOBAL__N_116itanium_demangle12CtorDtorNameE
N12_GLOBAL__N_116itanium_demangle10AbiTagAttrE
N12_GLOBAL__N_116itanium_demangle21StructuredBindingNameE
N12_GLOBAL__N_116itanium_demangle9LocalNameE
N12_GLOBAL__N_116itanium_demangle19SpecialSubstitutionE
N12_GLOBAL__N_116itanium_demangle13ParameterPackE
N12_GLOBAL__N_116itanium_demangle12TemplateArgsE
N12_GLOBAL__N_116itanium_demangle20NameWithTemplateArgsE
N12_GLOBAL__N_116itanium_demangle16StdQualifiedNameE
N12_GLOBAL__N_116itanium_demangle20TemplateArgumentPackE
N12_GLOBAL__N_116itanium_demangle12EnableIfAttrE
N12_GLOBAL__N_116itanium_demangle16FunctionEncodingE
N12_GLOBAL__N_116itanium_demangle9DotSuffixE
N12_GLOBAL__N_116itanium_demangle12NoexceptSpecE
N12_GLOBAL__N_116itanium_demangle20DynamicExceptionSpecE
N12_GLOBAL__N_116itanium_demangle12FunctionTypeE
N12_GLOBAL__N_116itanium_demangle13ObjCProtoNameE
N12_GLOBAL__N_116itanium_demangle17VendorExtQualTypeE
N12_GLOBAL__N_116itanium_demangle8QualTypeE
N12_GLOBAL__N_116itanium_demangle15PixelVectorTypeE
N12_GLOBAL__N_116itanium_demangle10VectorTypeE
N12_GLOBAL__N_116itanium_demangle9ArrayTypeE
N12_GLOBAL__N_116itanium_demangle19PointerToMemberTypeE
N12_GLOBAL__N_116itanium_demangle22ElaboratedTypeSpefTypeE
N12_GLOBAL__N_116itanium_demangle11PointerTypeE
N12_GLOBAL__N_116itanium_demangle13ReferenceTypeE
N12_GLOBAL__N_116itanium_demangle20PostfixQualifiedTypeE
C???t???t???
???????????"???P???P???????????????
???D???????
???????^??????? ???h???????o???>???
KKKK6
????????????????????????????????????????????????????????????????????????????????????????????????????????N10__cxxabiv116__shim_type_infoE
N10__cxxabiv117__class_type_infoE
N10__cxxabiv117__pbase_type_infoE
N10__cxxabiv119__pointer_type_infoE
N10__cxxabiv120__function_type_infoE
N10__cxxabiv129__pointer_to_member_type_infoE
????????N10__cxxabiv123__fundamental_type_infoE
PKDn
PKDh
PKDu
PKDs
PKDi
N10__cxxabiv117__array_type_infoE
N10__cxxabiv116__enum_type_infoE
N10__cxxabiv120__si_class_type_infoE
N10__cxxabiv121__vmi_class_type_infoE
St9exception
St13bad_exception
St9bad_alloc
St20bad_array_new_length
St12domain_error
St11logic_error
St16invalid_argument
St12length_error
St12out_of_range
St11range_error
St13runtime_error
St14overflow_error
St15underflow_error
St9type_info
St8bad_cast
St10bad_typeid
????????????
????
????v???????L???
???????????
???????????z???????
???????????????????y???O????????
??I???????<???s???????`???????m???????????d???S???????v???????????????????????????????????????????????????????????????????????????????????????????????????????????????????????????????q???????????w???
????
??q???V????
??????t???????????????????????t???
???????????????????M???g???????????????????????d???x???|?????
|8?"
|8?$
"@(?
zPLR
????????D-L
????????D-T
????????D-T
????????D-T
????????D-X
????????D-T
????????D-P
????????D-T
????????D-T
????????D-T
????????D-T
????????D-T
????????D-T
????????D-T
????????D-T
????????D-T
????????D-T
????????D-T
????????D-T
????????D-T
????????D-L
????????D-X
w???????D-X
w???????D-T
W???????D-P
O???????D-X
/???????D-X
3???????D-P
;???????D-L
G???????D-P
K???????D-P
K???????D-P
K???????D-L
S???????D-L
_???????D-L
k???????D-P
o???????D-P
s???????D-X
[???????D-T
[???????D-P
_???????D-T
_???????D-T
_???????D-T
_???????D-T
_???????D-T
_???????D-T
_???????D-T
_???????D-T
_???????D-T
_???????D-T
_???????D-T
_???????D-T
_???????D-T
_???????D-L
k???????D-X
K???????D-X
K???????D-T
+???????D-P
#???????D-X
???????D-X
???????D-P
???????D-L
???????D-P
???????D-P
???????D-P
???????D-L
'???????D-L
3???????D-L
????????D-P
C???????D-P
G???????D-L
????????D-\
K???????D-\
W???????D-\
c???????D-\
o???????D-\
{???????D-\
????????D-\
????????D-\
????????D-\
????????D-\
????????D-\
????????D-X
????????D-\
????????D-X
???????D-T
???????D-X
???????D-T
????????D-L
????????D-\
????????D-\
???????D-\
???????D-\
???????D-\
+???????D-\
7???????D-\
C???????D-\
O???????D-\
[???????D-\
g???????D-\
s???????D-X
????????D-\
????????D-X
????????D-T
????????D-X
????????D-T
????????D-T
????????D-P
w???????D-P
[???????D-P
7???????D-\
????????D-`
/???????D-`
'???????D-`
???????D-`
???????D-`
???????D-`
???????D-`
????????D-`
????????D-`
????????D-`
????????D-`
????????D-X
????????D-L
????????D-\
????????D-`
????????D-`
????????D-`
????????D-`
????????D-`
????????D-`
????????D-`
???????D-`
s???????D-`
g???????D-`
[???????D-`
c???????D-\
O???????D-\
;???????D-\
'???????D-\
???????D-X
???????D-`
????????D-X
????????D-`
????????D-`
????????D-`
????????D-`
????????D-d
????????D-X
????????D-`
????????D-`
????????D-`
????????D-X
????????D-`
????????D-`
????????D-`
????????D-`
o???????D-`
W???????D-`
????????D-d
S???????D-`
o???????D-`
????????D-`
{???????D-`
c???????D-\
K???????D-\
3???????D-X
#???????D-`
???????D-`
????????D-\
????????D-\
????????D-X
????????D-`
????????D-`
????????D-`
k???????D-X
c???????D-L
O???????D-L
;???????D-`
W???????D-`
????????D-L
????????D-`
????????D-`
????????D-`
K???????D-`
c???????D-`
o???????D-`
k???????D-`
w???????D-`
s???????D-X
_???????D-X
C???????D-X
'???????D-X
???????D-X
????????D-X
????????D-X
????????D-X
????????D-X
???????D-X
c???????D-X
G???????D-X
+???????D-X
???????D-X
????????D-X
????????D-X
????????D-X
????????D-X
????????D-X
g???????D-X
K???????D-X
/???????D-X
???????D-X
????????D-X
????????D-X
????????D-X
????????D-X
????????D-X
k???????D-X
O???????D-X
???????D-L
????????D-X
????????D-X
????????D-X
????????D-X
???????D-X
c???????D-X
G???????D-X
+???????D-X
???????D-X
????????D-X
????????D-X
????????D-P
????????D-X
???????D-P
_???????D-X
C???????D-P
#???????D-X
???????D-P
????????D-X
????????D-X
????????D-X
????????D-X
w???????D-X
[???????D-X
????????D-T
7???????D-X
????????D-X
????????D-X
????????D-X
????????D-X
????????D-X
s???????D-X
W???????D-X
;???????D-X
???????D-X
???????D-X
????????D-X
????????D-X
????????D-X
????????D-X
w???????D-X
[???????D-X
????????D-X
#???????D-X
???????D-X
????????D-X
????????D-X
????????D-X
????????D-X
{???????D-X
_???????D-X
C???????D-X
'???????D-X
???????D-X
????????D-X
????????D-X
????????D-P
????????D-L
????????D-L
o???????D-L
[???????D-\
O???????D-P
/???????D-`
#???????D-T
???????D-T
????????D-T
????????D-X
????????D-L
????????D-T
????????D-L
????????D-T
w???????D-L
c???????D-L
O???????D-`
7???????D-\
+???????D-T
???????D-T
???????D-L
????????D-L
????????D-`
????????D-`
????????D-L
????????D-T
????????D-L
????????D-T
g???????D-L
S???????D-T
7???????D-L
#???????D-T
???????D-T
????????D-T
????????D-L
????????D-T
????????D-T
????????D-L
????????D-L
????????D-T
????????D-P
???????D-X
o???????D-L
W???????D-T
G???????D-`
o???????D-`
????????D-X
????????D-T
????????D-\
????????D-T
???????D-P
k???????D-L
O???????D-X
g???????D-L
K???????D-X
????????D-H
+???????D-L
???????D-X
'???????D-L
???????D-X
???????D-L
????????D-L
????????D-L
????????D-L
????????D-L
{???????D-L
_???????D-L
G???????D-L
/???????D-L
???????D-L
????????D-L
????????D-L
????????D-L
????????D-L
????????D-T
????????D-T
k???????D-H
W???????D-`
[???????D-`
????????D-`
c???????D-`
G???????D-`
????????D-T
????????D-L
s???????D-T
w???????D-T
o???????D-L
[???????D-T
_???????D-T
G???????D-T
+???????D-P
???????D-X
;???????D-X
_???????D-\
????????D-\
/???????D-P
???????D-H
???????D-T
????????D-T
????????D-L
????????D-L
????????D-\
????????D-\
_???????D-`
;???????D-`
???????D-`
??????D-`
??????D-X
??????D-X
??????D-\
??????D-\
??????D-\
??????D-L
??????D-L
??????D-L
?~??????D-H
?~??????D-H
?~??????D-H
?~??????D-H
?~??????D-H
?~??????D-H
~??????D-L
s~??????D-T
c~??????D-H
O~??????D-L
?~??????D-L
3~??????D-L
'~??????D-T
'~??????D-P
~??????D-L
~??????D-T
~??????D-H
?}??????D-H
?}??????D-H
?}??????D-H
?}??????D-P
?}??????D-P
?}??????D-H
?}??????D-H
}??????D-H
s}??????D-H
g}??????D-H
[}??????D-P
;}??????D-P
}??????D-P
?|??????D-P
?|??????D-L
?|??????D-T
?|??????D-P
?|??????D-\
?|??????D-H
{|??????D-\
o|??????D-P
[|??????D-P
K|??????D-P
;|??????D-T
3|??????D-\
#|??????D-P
|??????D-X
?{??????D-X
?{??????D-P
?{??????D-T
?{??????D-P
?{??????D-L
?{??????D-T
?{??????D-P
?{??????D-T
{??????D-P
k{??????D-P
W{??????D-P
?{??????D-P
/{??????D-T
{??????D-X
{??????D-P
?z??????D-P
?z??????D-P
?z??????D-P
?z??????D-X
?z??????D-X
?z??????D-X
?z??????D-X
?z??????D-X
?z??????D-X
?z??????D-\
?z??????D-\
{??????D-\
{??????D-\
{??????D-X
{??????D-X
#{??????D-\
{??????D-\
?z??????D-X
?z??????D-\
?z??????D-\
?z??????D-X
?z??????D-\
?z??????D-X
?z??????D-\
?z??????D-T
oz??????D-P
_z??????D-X
Kz??????D-P
7z??????D-T
z??????D-\
z??????D-T
?y??????D-P
?y??????D-H
?y??????D-L
?y??????D-P
y??????D-P
ky??????D-T
Oy??????D-P
3y??????D-T
y??????D-X
?x??????D-X
?x??????D-T
?x??????D-L
?x??????D-L
?x??????D-T
?x??????D-P
wx??????D-L
_x??????D-P
Cx??????D-P
x??????D-L
x??????D-H
?w??????D-L
?w??????D-L
?w??????D-L
?w??????D-L
?w??????D-T
?w??????D-L
?w??????D-P
?w??????D-L
w??????D-H
kw??????D-H
Ww??????D-T
sw??????D-P
kw??????D-L
kw??????D-D
[w??????D-L
Sw??????D-d
/w??????D-`
w??????D-L
?v??????D-L
?v??????D-L
?v??????D-L
?v??????D-L
?v??????D-L
gv??????D-X
Gv??????D-`
3v??????D-\
v??????D-X
v??????D-X
?u??????D-T
?u??????D-P
?u??????D-`
v??????D-L
?u??????D-L
_?_$
_?_$
@2?B?
@?E?
??{A???
_???
@?@?
@???
???_?
???_??
??/?
???^?8?
??#?
???_??
???^??
?{E???
_???
???_??
??{B???
_???
?H?;??
@???
@???_?
?{E???
_???
_???
???_??
@???
@???
@???
@???
??{C??
?H?;?
@???
?!<E??C
@???
@???
H?;?
@???_?
?{C??
_???
_??C
_???
_??C
_??C
_???
???_?
?B??
???{B???
_???
@?????!?
?R????!@
?????B?
?R(a
@?n?
@???
???_???^??
_?h?
?Rg?
?{E???
_???
???_?
?B??
???{B???
_???
???_??
@??C_?
?{B???
_???
?H?;?
@???
@??C
???[?`
??+@?k
??'@?v
??#@??
@???
@??c
???@??
??@?????!?
?H?;?
@???_?
?{J???
_???
?H?;??
@???
@??C
@???_?
?{C??
_???
@??C
_???
??{A???
_??C
@??C
_???
@??{A???
_??C
@??C
_???
@??{A???
_??C
@??C
_???
@??{A???
_??C
@??C
???_??
???^??
???]??
@???\8??\8??\8??\8?
??{G??
?H?;??
@???
@??C
@???_?
?{C??
_? ?
???_??
??{B???
_??C
?H?;??
@???
???^??C
@?T?
???@9?
@???_?
??{D??C
_???
@??{A???
_???
???_??
@??{B???
_???
??{A???
_???
??{A???
???_??
@??_@9
??{C??
_??C
@??C
_???
???_??
@??????
??{B???
_??C
@??C
_??C
_??C
@??C
_??C
@??C
_??C
@??C
_??C
@??C
_??C
@??C
_???
@???
???^??????
@???
^??????
@???
???]??????
@???
@??????
@???
@??????
@???
??{F???
_???
???_??
@??????
??{B???
_???
???_??
@??????
??{B???
_???
???_??
@??????
??{B???
_???
???_??
@??????
??{B???
_???
???_??
@?~????
??{B???
?H?;??
@???
@??C
@???_?
?{C??
_???
???_??
@??{B???
_??C
@??C
_???
??{A???
_???
???_??
@??????
??{B???
_???
??{A???
_??C
@??C
_???
??{A???
_??C
@??C
_??C
@??C
_???
???_??
@??????
??{B???
_???
@??????{A???
???_??
@???
@??????
@??_@9
??{C??
_??C
@??C
_???
???_??
@??????
??{B???
_??C
_???
??{A???
_???
??{A???
_???
@??{A???
??{C??
_???
???_??
@?r?
??{A???
_??C
@??C
_???
??{A???
_??C
@??C
_??C
???_?L???
_?M???
???^?N???
@?O????
???{D??C
_??C
@??C
_???
??{A???
_??C
@??C
_???
??{A???
_??C
@??C
_???
??{A???
_??C
@??C
_???
??{A???
_??C
@??C
_??C
@??C
_??C
@??C
_??C
@??C
_???
??{A???
_??C
@??C
???_??
??????
??????
?{C??
_???
??{A???
_???
@???
@???
?{B???
_??C
@??C
_???
@???
??{A???
_???
@???
??{A???
_???
@?D????{A???
???_??
?f????
?_????
@?f????
?{C??
_???
@?w?
@?i?
?{B???
_??C
@E??C
_??C
DE??C
_??C
HE??C
_??C
LE??C
_???
@?T?
??{A???
_???
???{B???
_???
@?>?
??{A???
_???
???{B???
_???
@?(?
??{A???
_???
???{B???
_???
??{A???
_???
???{B???
_???
????
?(??
?R?s
@???
???_???
?R??
????
?s_8h
?R????!@
?????B<$?H?
?{B???
_??C
?I?;?)
@???
^??C
_?????!?
???]?h
_???]?????B@
?????cx4???
_???]??
]???
_???\???
??#@??
_??#@?????B?(?????c?-???
_???\??
@???
@???
@?????B?
?????c`
@???
@?????!@
?????B?
?R??
@???
@???
?R?_
9?_@9?
@???
????!@
?????B?7??
?R??
????!@
?????B?1??
?R??
????!@
?????B?
?R??
????!@
?????B@
?R??
????!@
?????B?"??
?R??
H?;?
@???_?
?{H??C
_???
???_?
???{B???
_???
???{A???
_???
???_?
?A??
???{B???
_??C
??#?=?
?=?_
?H?;??
@???
???Z??
?A??
Z???Y? 
?<?C
@???_?
@???@??{S??C
}@??
???{A???
_???
???_?
?@??
???{B???
_??C
??#?=?
?=?_
?H?;??
@???
???Z??
?@??
Z???Y? 
?<?C
@???_?
@???@??{S??C
_???
???_?
yA??
???{B???
_???
???_?
}A??
???{B???
_??C
?H?;??
@???
@???
@???_?
?{D??C
_?}?
?H?;??
@???
@???_?
?{C??
_?d?
??{???
@???
?H?;?
@???
?????
?RR?
??G@?????!?&?Q?
??C@?????!@
?????Bp
?Ra?
??C@??C
?R?3
???w
??w@?(
_???
????!@
?????B?
?RK?
??@???
????!@
?????B?
?R:?
?R?s
????!?>???
????!@
?????B?1??
?R'?
??O@??K@?
?R?s
????
?=?A
?R??
??7@??
?????!@
?????B?
?R??
@??7
?7@?h
?7@?????!@
?????B
?R??
??7@?????!P2???
??3@?h
?3@?
@?????!@
?????B$.??
?R?/
@??/@??3@?
9@?????B?
@??/@??3@?
@?????Bx
?????! '??"?R?
??_@??K@???
@??K@??_@?B
??+@??O@??K@??k
???g
??k@??c@??_@??g@???
??+@??K@???
??O@??K@???
??_@?????c?1?
@??/@?????B
???@?
?3@?
9@?i
???'
?3@?
@??C
???'
?'@?h
?'@?????!@
?????B?>??
??3@?
@??'@?????!?8??
@??#
??#@?????B?
??#@???@??W@?
?R??
?_@?h?
?R?s
??B9?
?H?;?
@???_?
@???
@??{???
_?2?
?{A???
_??C
???_??
???^??
??{D??C
_???
?I?;??
@???
o???<?
?=??
?????
@???
@???_?
?{I???
_???
??{A???
_??C
??#?=?
?=?[
?I?;??
@???
???Z???Y??
@???
???X??
@???_?
@???@??{S??C
_???
?????!@
?????B?
@?????B?
???_?+?
??{C??
_??C
?H?;?
@???
o???<?
?=????
?>??C
?H?;?
@???_?
@??{H??C
_?H?
?H?;??
@???
?!PE??c
@?E?
@?G?
@???_?
?r?{D??C
_?'?
?H?;?
@???
@??C
?l????
???\?$
??#@?/
@???
@??c
???????
???@??
??@?????!?
???H?;?
@???_?
?{H??C
_???
@??C
???_??
_?8????
@??_@9
@?3????
@??[@9
??{C??
_???
@???
??{A???
_??C
_???
??{A???
_??C
_???
???_?
?(y*?
????
?{B???
_???
??{A???
_??C
@??C
_???
???_??
@??{B???
_???
?{A???
_???
@??{A???
_???
}@??{A???
_???
??{A???
_??C
@??C
_??C
@???^?
????
@???
_???^?
_???^?)
????
??_??{D??C
_???
??{A???
_???
?H?;?
@???
^???
@???
@9?C
@???
@???
@???
^???
????
??^??
?H?;?
@???_?
@??{E???
_???
@9??
@???
??_??{C??
_???
@???
??_??{B???
_??C
9??@9?C
_??C
@??C
_???
???_??
??????
@??{B???
_???
@??{A???
_???
@?????
??{A???
_???
??{A???
_??C
@??C
_??C
@??C
_???
???_??
??????
@??{B???
_???
@?????
@??{A???
_???
@?z???
??{A???
_???
??{A???
_??C
@??C
_???
??{A???
_??C
@??C
_???
@??{A???
_??C
@??C
_??C
???_??
_??????
???^?s
@9?{@9?w@9?s@9
??{D??C
?H?;??
@???
@??C
@???_?
?{C??
_???
?H?;??
@???
???^??C
??????
@???
???@9?
@???_?
??{D??C
_?w?
@??{A???
_???
???_??
@??{B???
_???
??{A???
_??C
@??C
_??C
@??C
_??C
???^??????
@???
@??????
@???
@??????
@???
??{D??C
_???
???_??
@??????
??{B???
_???
???_??
@??????
??{B???
???_??
@?X?
@?d????
@??_@9
??{C??
_??C
@??C
_???
???_??
@??????
??{B???
_??C
_???
@??????{A???
_???
@??{A???
_???
??{B???
_???
??{A???
_??C
@??C
_???
???_?L???
@?M????
???{B???
_??C
@??C
_???
??{A???
_??C
@??C
_???
??{A???
_??C
@??C
_??C
@??C
_???
??{A???
_??C
@??C
???_??
??????
??????
?{C??
_???
??{A???
_???
@???
@???
?{B???
_??C
@??C
_???
@???
??{A???
_???
@???
??{A???
_???
@?????!L
?R????!@
?????B?
?????cL
@?????!4
?R????!@
?????B?
?????c4
@?????!?4??
?R????!@
?????B?
?????c?4???
@?????!
?R????!@
?????B?
?????c
@?????!?
?R????!@
?????B?
?????c?
@?????!
?R????!@
?????B?
?????c
@?????!< ??
?R????!@
?????B?
?????c< ???
@?????!4
?R????!@
?????B?
?????c4
@?????!4'??
?R????!@
?????B?
?????c4'?u?
@?????!8
?R????!@
?????B?
?????c8
@?????!?.??
?R????!@
?????B?
?????c?.?M?
@?????!
?R????!@
?????B?
?????c
@?????!H
?R????!@
?????B?
?????cH
@?????!?=??
?R????!@
?????B?
?????c?=?
@?????!|
?R????!@
?????B?
?????c|
@?????!?$??
?R????!@
?????B?
?????c?$???
@?????!d:??
?R????!@
?????B?
?????cd:???
@?????!?$??
?R????!@
?????B?
?????c?$???
@?????!@8??
?R????!@
?????B?
?????c@8???
@?????!?
?R????!@
?????B?
?????c?
@?????!l
?R????!@
?????B?
?????cl
@?????!?2??
?R????!@
?????B?
?????c?2?q?
@?????!?
?R????!@
?????B?
?????c?
@?????!? ??
?R????!@
?????B?
?????c? ?I?
@?????!?1??
?R????!@
?????B?
?????c?1?5?
@?????!?'??
?R????!@
?????B?
?????c?'?!?
@?????!?2??
?R????!@
?????B?
?????c?2?
@?????!(5??
?R????!@
?????B?
?????c(5???
@?????!
?R????!@
?????B?
?????c
%???
@?????!8???
?R????!@
?????B?
?????c8????
@?????!L2??
?R????!@
?????B?
?????cL2???
@?????!?
?R????!@
?????B?
?????c?
@?????!$
?R????!@
?????B?
?????c$
@?????!
?R????!@
?????B?
?????c
@?????!
?R????!@
?????B?
?????c
%?m?
@?????!?
?R????!@
?????B?
?????c?
@?????!$
?R????!@
?????B?
?????c$
@?????!?
?R????!@
?????B?
?????c?
@?????!T3??
?R????!@
?????B?
?????cT3?
@?????!?8??
?R????!@
?????B?
?????c?8?
@?????!?%??
?R????!@
?????B?
?????c?%???
@?????!?3??
?R????!@
?????B?
?????c?3???
@?????!,
?R????!@
?????B?
?????c,
@?????!?
?R????!@
?????B?
?????c?
@?????!X1??
?R????!@
?????B?
?????cX1???
@?????!?
?R????!@
?????B?
?????c?
@?????!
?R????!@
?????B?
?????c
@?????!0
?R????!@
?????B?
?????c0
@?????!x)??
?R????!@
?????B?
?????cx)?U?
@?????!$9??
?R????!@
?????B?
?????c$9?A?
@?????!?
?R????!@
?????B?
?????c?
@?????!(!??
?R????!@
?????B?
?????c(!?
@?????!?
?R????!@
?????B?
?????c?
@?????!(9??
?R????!@
?????B?
?????c(9???
@?????!????
?R????!@
?????B?
?????c?????
@?????!8>??
?R????!@
?????B?
?????c8>???
@?????!?%??
?R????!@
?????B?
?????c?%???
@?????!?
?R????!@
?????B?
?????c?
@?????!h
?R????!@
?????B?
?????ch
@?????!?9??
?R????!@
?????B?
?????c?9?y?
@?????!?2??
?R????!@
?????B?
?????c?2?e?
@?????! 
?R????!@
?????B?
?????c 
@?????!?
?R????!@
?????B?
?????c?
@?????!?
?R????!@
?????B?
?????c?
@?????!?1??
?R????!@
?????B?
?????c?1?
@?????!\
?R????!@
?????B?
?????c\
@?????!?)??
?R????!@
?????B?
?????c?)???
@?????!X
?R????!@
?????B?
?????cX
@?????!?
?R????!@
?????B?
?????c?
@?????!?
?R????!@
?????B?
?????c?
@?????!?
?R????!@
?????B?
?????c?
@?????!?*??
?R????!@
?????B?
?????c?*???
@?????!0
?R????!@
?????B?
?????c0
@?????!X
?R????!@
?????B?
?????cX
@?????!?
?R????!@
?????B?
?????c?
@?????!?
?R????!@
?????B?
?????c?
@?????!\4??
?R????!@
?????B?
?????c\4?%?
@?????!?
?R????!@
?????B?
?????c?
@?????!?
?R????!@
?????B?
?????c?
@?????!t
?R????!@
?????B?
?????ct
@?????!
?R????!@
?????B?
?????c
3???
@?????!?:??
?R????!@
?????B?
?????c?:???
@?????!?>??
?R????!@
?????B?
?????c?>???
@?????! 
?R????!@
?????B?
?????c 
@?????!t3??
?R????!@
?????B?
?????ct3???
@?????!
?R????!@
?????B?
?????c
+?q?
@?????!?3??
?R????!@
?????B?
?????c?3?]?
@?????!?!??
?R????!@
?????B?
?????c?!?I?
@?????!P*??
?R????!@
?????B?
?????cP*?5?
@?????!?'??
?R????!@
?????B?
?????c?'?!?
@?????!?
?R????!@
?????B?
?????c?
@?????!?"??
?R????!@
?????B?
?????c?"???
@?????!?%??
?R????!@
?????B?
?????c?%???
@?????!P&??
?R????!@
?????B?
?????cP&???
@?????!
?R????!@
?????B?
?????c
@?????!
?R????!@
?????B?
?????c
@?????!?
?R????!@
?????B?
?????c?
@?????!X
?R????!@
?????B?
?????cX
@?????! 
?R????!@
?????B?
?????c 
@?????!D
?R????!@
?????B?
?????cD
@?????!x
?R????!@
?????B?
?????cx
@?????!
?R????!@
?????B?
?????c
@?????!H(??
?R????!@
?????B?
?????cH(?
@?????!?
?R????!@
?????B?
?????c?
@?????!42??
?R????!@
?????B?
?????c42???
@?????!
?R????!@
?????B?
?????c
/???
@?????!?
?R????!@
?????B?
?????c?
@?????!h#??
?R????!@
?????B?
?????ch#???
@?????!T
?R????!@
?????B?
?????cT
@?????!?
?R????!@
?????B?
?????c?
@?????!?
?R????!@
?????B?
?????c?
@?????!?*??
?R????!@
?????B?
?????c?*?i?
@?????!?&??
?R????!@
?????B?
?????c?&?U?
@?????!?
?R????!@
?????B?
?????c?
@?????!
?R????!@
?????B?
?????c
@?????!?!??
?R????!@
?????B?
?????c?!?
@?????!D
?R????!@
?????B?
?????cD
@?????!
?R????!@
?????B?
?????c
:???
@?????!d+??
?R????!@
?????B?
?????cd+???
@?????!
?R????!@
?????B?
?????c
????
@?????!?2??
?R????!@
?????B?
?????c?2???
@?????!?
?R????!@
?????B?
?????c?
@?????!
?R????!@
?????B?
?????c
@?????!T:??
?R????!@
?????B?
?????cT:?y?
@?????!p???
?R????!@
?????B?
?????cp??e?
@?????!P+??
?R????!@
?????B?
?????cP+?Q?
@?????!?
?R????!@
?????B?
?????c?
@?????!?(??
?R????!@
?????B?
?????c?(?)?
@?????!????
?R????!@
?????B?
?????c???
@?????!X
?R????!@
?????B?
?????cX
@?????!h'??
?R????!@
?????B?
?????ch'???
@?????!?
?R????!@
?????B?
?????c?
@?????!$,??
?R????!@
?????B?
?????c$,???
@?????!?,??
?R????!@
?????B?
?????c?,???
@?????!?
?R????!@
?????B?
?????c?
@?????!H
?R????!@
?????B?
?????cH
@?????!?5??
?R????!@
?????B?
?????c?5?u?
@?????!?4??
?R????!@
?????B?
?????c?4?a?
@?????!0
?R????!@
?????B?
?????c0
@?????!?
?R????!@
?????B?
?????c?
@?????!?
?R????!@
?????B?
?????c?
@?????!?
?R????!@
?????B?
?????c?
@?????!?
?R????!@
?????B?
?????c?
@?????!
?R????!@
?????B?
?????c
@?????!?
?R????!@
?????B?
?????c?
@?????!?:??
?R????!@
?????B?
?????c?:???
@?????! 3??
?R????!@
?????B?
?????c 3???
@?????!
?R????!@
?????B?
?????c
6???
@?????!?
?R????!@
?????B?
?????c?
@?????!?
?R????!@
?????B?
?????c?
@?????!?3??
?R????!@
?????B?
?????c?3?]?
@?????!
?R????!@
?????B?
?????c
)?I?
@?????!?%??
?R????!@
?????B?
?????c?%?5?
@?????!?
?R????!@
?????B?
?????c?
@?????!8
?R????!@
?????B?
?????c8
@?????!P&??
?R????!@
?????B?
?????cP&???
@?????!?6??
?R????!@
?????B?
?????c?6???
@?????!?
?R????!@
?????B?
?????c?
@?????!?&??
?R????!@
?????B?
?????c?&???
@?????!|)??
?R????!@
?????B?
?????c|)???
@?????!?
?R????!@
?????B?
?????c?
@?????!$-??
?R????!@
?????B?
?????c$-???
@?????!?
?R????!@
?????B?
?????c?
@?????!|
?R????!@
?????B?
?????c|
@?????!`
?R????!@
?????B?
?????c`
@?????!?3??
?R????!@
?????B?
?????c?3?1?
@?????!?
?R????!@
?????B?
?????c?
@?????! 
?R????!@
?????B?
?????c 
@?????!?
?R????!@
?????B?
?????c?
@?????!?#??
?R????!@
?????B?
?????c?#???
@?????!
?R????!@
?????B?
?????c
@?????!?
?R????!@
?????B?
?????c?
@?????!\4??
?R????!@
?????B?
?????c\4???
@?????!?
?R????!@
?????B?
?????c?
@?????!L
?R????!@
?????B?
?????cL
@?????!t-??
?R????!@
?????B?
?????ct-?i?
@?????!?
?R????!@
?????B?
?????c?
@?????!?)??
?R????!@
?????B?
?????c?)?A?
@?????!?/??
?R????!@
?????B?
?????c?/?-?
@?????!
?R????!@
?????B?
?????c
@?????!@"??
?R????!@
?????B?
?????c@"?
@?????!
?R????!@
?????B?
?????c
'???
@?????!?9??
?R????!@
?????B?
?????c?9???
@?????!?9??
?R????!@
?????B?
?????c?9???
@?????!?/??
?R????!@
?????B?
?????c?/???
@?????!?
?R????!@
?????B?
?????c?
@?????!?4??
?R????!@
?????B?
?????c?4???
@?????!P
?R????!@
?????B?
?????cP
@?????!h
?R????!@
?????B?
?????ch
@?????!?
?R????!@
?????B?
?????c?
@?????!8*??
?R????!@
?????B?
?????c8*?=?
@?????! 
?R????!@
?????B?
?????c 
@?????!?
?R????!@
?????B?
?????c?
@?????!04??
?R????!@
?????B?
?????c04?
@?????!X
?R????!@
?????B?
?????cX
@?????!@
?R????!@
?????B?
?????c@
@?????!?6??
?R????!@
?????B?
?????c?6???
@?????!<
?R????!@
?????B?
?????c<
@?????!?*??
?R????!@
?????B?
?????c?*???
@?????!?
?R????!@
?????B?
?????c?
@?????!45??
?R????!@
?????B?
?????c45?u?
@?????!?5??
?R????!@
?????B?
?????c?5?a?
@?????!?
?R????!@
?????B?
?????c?
@?????!
?R????!@
?????B?
?????c
@?????!
?R????!@
?????B?
?????c
@?????!?
?R????!@
?????B?
?????c?
@?????!
?R????!@
?????B?
?????c
@?????!4
?R????!@
?????B?
?????c4
@?????!?+??
?R????!@
?????B?
?????c?+???
@?????!?"??
?R????!@
?????B?
?????c?"???
@?????!$0??
?R????!@
?????B?
?????c$0???
@?????!?
?R????!@
?????B?
?????c?
@?????!?
?R????!@
?????B?
?????c?
@?????!?
?R????!@
?????B?
?????c?
@?????!?
?R????!@
?????B?
?????c?
@?????!?
?R????!@
?????B?
?????c?
@?????!(;??
?R????!@
?????B?
?????c(;?5?
@?????!
?R????!@
?????B?
?????c
@?????!l
?R????!@
?????B?
?????cl
@?????!x
?R????!@
?????B?
?????cx
@?????!t
?R????!@
?????B?
?????ct
@?????!,5??
?R????!@
?????B?
?????c,5???
@?????!p
?R????!@
?????B?
?????cp
@?????!?0??
?R????!@
?????B?
?????c?0???
@?????!?
?R????!@
?????B?
?????c?
@?????!d ??
?R????!@
?????B?
?????cd ???
@?????!8
?R????!@
?????B?
?????c8
@?????!P
?R????!@
?????B?
?????cP
?{A???
_???
?I?;?)
@???
??'@?
??#@?
@?????J
Iy??
?????!4$???
?????!?
?????!? ???
?????!X$?}?
?????!?
??@9
?????!
??@9(
?????!?
???@9
?????! 6?]?
??@9?
??@9
?????!? ?P?
??@9H
??@9
?????!H6?C?
?????! 6?=?
??@9
?????!?5?1?
@???
@?.?
?H?;?
@???_?
??@??{U???
_???
???_???
@???^?
@???^?
??C_??
??{D??C
_???
???_??
@?h?
@???
??{B???
_???
@? a
??{A???
_???
?!?@???
??{A???
_???
?{A???
_??{???
?I?;?)
@???
?R}????+@?
?????!?;???
@??O@??#
???K
??K@??
?K@?
?????!H
??#@?
??K@?
?)1@?
??#@?????!?
@??#@??
??K@?
@???
?????!?
?????!$(?]?
@??K@??
????
???@???
@?q?
@???
@??K@?
???C
??C@?[?
?????!?$?<?
@??C@?
????
@???@?
@?*?
?????!h7?'?
@??K@?
?????!D
@??K@?
???w
?s@??w@?
@??K@??s@?
???7
??7@?
@y?g
??7@?
??A9h
??A9
?????!
1???
??A9h
??A9
?????!x:???
?????!?$???
??A9
?????!?:???
??A9
?????!l'???
@??7@?
???/
@??/@?
@???
?????!h7???
@??K@??s@?
@???
@?????!0
?s@?
????
?w@?
?????!?
?'@??C
??????
@???
?H?;?
@???_?
@??{???
???_??
@?J?^? 
@??{B???
_???
@??{A???
_???
???_??
@??????
@?k????
@?a?
??{B???
?H?;?
@???
@?)?^?
@?)?^?
@??'@?
@??c
@?)?^?
?H?;?
@???_?
@??{G??
_???
??{???
?I?;?)
@???
?R?????#@?
?????!?$?
@??C@??#
????
???@??
??@??;
@??;@?
???7
@??;@?
???3
@??;@?
???/
?????!
<???
??7@?
@??7@??
????
@???
@?>?
@??7@?
???+
?3@?(
@??3@??
???C
@???
@??3@??
???'
@??'@?
???+
?+@??
@??+@?
@???
?????!h7???
??/@???
?????!(,???
??7@?
?????!(
?3@?
?????!
?????!?
?/@?H
?????!?*?`?
??/@?^?
@??C
?w????
@?Y?
?H?;?
@???_?
@??{???
_???
?I?;?)
@???
????
?????!
;?7?
@??3@?
@??3@???
???+
??+@?
?????!
@??+@?
???O
??O@?
??K@?
@?????Jq??
Iy??
?????!4$?
?????!?
?????!? ???
?????!X$???
?????!?
?3A9
?????!?:???
?3A9
?????!
?3A9
?????!x
@??+@?
???#
@??#@?
@???
?????!h7???
@??+@?
@???
??3A9
?sA9?
@??+@???
?????!?
?!P;?
????;@???
?????!p7???
????
@??+@?
@???
?????!P;?~?
?Q??
??????
@?{?
?H?;?
@???_?
??@??{Z??
_???
@??{A???
_??{???
?I?;?)
@???
?R2????
@??W@?
???3@??S
?????!?
@??S@?
??7@?<?
?????!P;?9?
@??S@?
????
??wB9
?????!,1?+?
@??S@?
@??S@?
9??@?
???@??'
T?'@?????J???
Iy??
?????!?
?????!X$?
?????!4$???
?????!? ???
?????!?
?sB9h
?wB9
?????!
?sB9h
?sB9
?????!?
?cB9?
?SB9h
?wB9
?????!?
?sB9
?????!(
?SB9
?????!T
?cB9
?????!?4???
?????!l1???
@??S@?
??#@???
@??S@?
???G
??cB9?
?SB9?
?G@?(
@??G@?
???C
??C@?
@??G@?
???+@?
?+@??
@??S@??#
????
???@??
@???@?
???+@?
????
?????!?$?O?
@?l?
?R?w
?w???
?????!0
??w???c
@?U?
?w@?
????
?????!?
??S@???
@?A?
@???
??S@??C
@?8?
@???
??S@???
@?/?
@???
@?????!?
??/@??
@?"????c
?H?;?
@???_?
@??{???
_?{?
??{A???
_???
???_??
????
????
??{B???
_??C
_??C
??)}
_??C
???C
_???
@???
??{A???
_??{???
?I?;?)
@???
??R?
?????B?5??
@?????!?
????
?$???
@??C
??R?
??/@??#
??#@?
?3@??W@??'@??#@???
?3@??W@??'@???
?7@??
@??C
???@??;@??G
??G@??C@???
?R??
@???
?H?;?
@???_?
@???
@??{???
_???
??#?=?
?=?_
?I?;??
@???
???Z??
Z???Y?
@??C
??CY??
@???_?
@???@??{S??C
_?i?
?H?;?
@???
@?????!@
?????B?
?Rw?
@???
@??c
????
1@?????!@
?????B
?R[?
????!@
?????B<!??
?RT?
????!@
?????B0(??
?RE?
?R??
????
H?;?
@???_?
?{D??C
??{???
?I?;?)
@???
?????!@
?????B
???W@? %
@? %@???
???W@?
?RJ????
?W@??w??)?@?
?W@??
@?)!@??w?? yj?
???W@?
?????!8,?P?
??wA???
?????!?!?K?
??W@??S
??S@?A?
?????!P;?>?
?wA?
????
?E????
????!@
?????B?
?R??
?W@??g??)?@?
?W@??
@?)!@??g?? yj?
???W@?
?R?????K@?
?????!?
??W@??O
??O@?
??W@??
???W@?
?W@??O??)
?W@??
@??O??
???W@? 
???W@?
????W@?
@??C
???@??C@??
???@?M?
??C@?K?
??G@??c
??G@?F?
?OA?
????
?gA?
????
????!@
?????B
?R_?
????
@???@?????!d
?????B?-?
????
F??;
@???@?????!X;?"
???;@???
@???@?????!8
????
???@??
??@?
??@?
@?????!@
?????B0
?R/?
????!@
?????B?!??
?R(?
??@??
??@?
??@?
@?????!@
?????B
????!@
?????B(
?W@??
??)?@?
?W@??
@?)!@??
?? yj?
????
?R4????
@???@?
???'@???
?????!?
???@?E?
???@???
??+@??
????
??+@??
@???
??/@??
@??3
??????3@?
???7@??{
???@?
@??{@??
???7@??w
???@?
@??w@?
???s
??s@?
?????s@?)
@??o@????? yj?
???g
@??g@?
???c
? ????c@??c
@??#
@?m?
@?k?
??#@??c
??#@?f?
??@?
????
?z??
????!@
?????B,
?R{?
??W@?
)@???
@?????!?
@?@?
??????
@???
@?2?
????_
?????_@?
?????c
??????
??@?
????
?????!@
?????BP+??
?R??
???????
?H?;?
@???_?
@??{???
??{B???
_???
???_??
@???
@???
?{B???
_??C
???^??
@???
??{D??C
_??C
???_??
_???^?
@?)?^?
?{D??C
_???
@?)?^?
?{A???
_???
?!?@???
??{A???
_???
???_??
?*!@?
@?k?^?
i+?)%@?
??{B???
_??C
@?)?^?
@???
??{A???
_??C
@?)?^?
@?F?
??{A???
_???
@???
??{A???
_???
?H?;?
@???
,@???
???[?
?+@?
??+@?
?C]?
?+@?
-@??
?+@?
-@??#
??????#@?
?'@???
??C]??
??@?
??@?
?+@??
??+@??
?+@??
??+@??
??\??
??]??
??\??
?+@??
?+@??
?+@??
??+@??
??+@??
,@??
?+@??
??+@??
??+@??
??+@??
\??c
???^??
?H?;?
@???_?
@??{J???
_?B?
?H?;??
@???
@??/@?
???^??
@???_?
@??{F???
,@??
a@??
,@?4
@9&?
??_??{C??
_???
,@??
??^??
@???
,@??
???^???
a@??
??^???
?_8??
,@??
???^???
9??^???
??_??{E???
_???
?H?;?
@???
^??#
???]??O
*?O@???
?#@??
??#@??
??#@?
??#@??
?#@?
?A9?
?#@?c
??#@??
??#@?
,@??
@??#@?)
@?E????
@???
???[??
??????
??#@?"
??#@???\??
??#@?S
??#@??
?#@?1
??#@?
??#@?
?A9?
?#@?
????
??#@??+
??+@??
,@?;
??]?*?
*?#@??
??]?
??^??
?H?;?
@???_?
@??{J???
_???
@??C
_??C
_??C
@??C
_??C
@??C
_??C
@??C
_???
_???
_??C
@??C
_??C
_??C
@??C
_??C
@??C
_??C
_???
???_??
@???
??_??
@??{A???
_??C
9??@9?;@9
_??C
@??C
_???
??{A???
_???
???_??
??????
??{B???
_??C
_???
???_??
@???@92
??{B???
_???
??@9V?
????
@???@9i
9??@9G?
??_??{B???
_???
@?????
??{A???
?H?;?
@???
@??C
?H?;?
@???_?
@??{C??
_???
??'?
_???
???_??
@??C_??
@??{B???
_??C
_???
???_??
@?J?^?
??{B???
_??C
@?)?^?
??{A???
_??C
@?)?^?
???_??
?B9h
!@??
@???
?B9h
5@??
@???
@?k?
??{B???
_??C
?H?;?
@???
=@??
=@??
?@??
???c
?H?;?
@???_?
@??{D??C
@???
??{A???
_??C
???_??
?B9*
A@?=
9??^8
)?B9)
????
????
?B9h
?B9h
!@??
?B9)
?B9?
@?(!@?)a
1@???
@? !
?R(?
9@???
@? 5
?R(?
?{D??C
_???
?H?;?
@???
??????
??????
?B9?
!@??
@???
?B9?
5@??
@???
?B9h
??]?
@???]?(!
1@?f?
@? !
?R(?
@?(a
?R(1
?B9(
?R??
@?(9
???]??
@???]?(5
9@?;?
@? 5
?R(?
?H?;?
@???_?
@??{F???
_???
?H?;?
@???
A@?h
A@??
@???
=@??
??@?
?'@?
??????D
?G@??
?/@?
?/@?
?R?;
?R?;
??????*
=@??
???@?
?????'@?
@??;@???
??????
=@???
??????
E@???
???\?B
??^??
?H?;?
@???_?
@??{I???
_???
?H?;?
@???
??????
=@??
??????
@?(E
??^??
?H?;?
@???_?
@??{G??
_?>?
?H?;?
@???
=@??
?3@?
A@?h
??3@?
?3@?D????
??3@??/
?[????
??/@?
*?3@?
???W
*?W@?
?3@?
1@?C
??3@???
???^?
!@?)
!@??
=@??
????
]???\??
\?K?
??Z?
q ??T
??Z?
?3@?
=@?9?
?3@?
?3@?
I@??
?B9?
?3@?3????
??3@??'
??????
??'@?
?3@?
A@?Y
??3@??s
?()@?)%@?
??s@?
?3@??s???
????
??3@??#
??????
??#@?
???Y?
?3@??????
??3@??
????
?3@?
@@??
 @??
$@??
??????
??3@??
??????
??3@??o
?(%@?)!@?
??o??
???Y?
?R?C
?3@?
=@???Y??
?R??
?CY8?
?3@??
_?(E
?3@?
??????3@??
??[??
?H?;?
@???_?
@??{N???
_?<?
?H?;?
@???
??o@??
=@??
?O@???
*?O@?
9T???
?O@??3
?_???
?SC9?
?O@??????
??O@??G
?F????
??G@?
?A???
@??K
?K@??g
*?O@???
?*????
??O@??C
?h????
??C@?
?O@?%????
??O@???
?]????
???@??g@?)
????
V???U???V?I?
??O@?
?B9(
?O@?I????
??O@??;
????;@??
??O@?
??g@?
????O@??g@?
??_@?
=@??
????
[???Z??
Z?*?
??_@??
?O@??????
??O@??3
??????
??O@??g@?
??????3@??7@??
??O@??g@?
??_@?
??????O@?????
@9??
?O@?()@?)%@?
?O@?
????
T???S???T???
?O@?(!@?*)@?+%@?J
?(!@??
?R?+
?O@?
1@??+
?O@??/@??+@?
?(9@??g@?
?()@?)%@?
??O@?
@??[
%@??[@?
=@???
?R??
???Y???X??
X???W???
??S@?
?O@?
A@?h
??O@??
?(?D??
??S@?
@@??'
 @??
(@??
?h????
??O@??g@?
?b????O@??
@??#@??
??'@?)9@?
???@?
?O@?
(@??
?X????O@?D???
@9V?
?O@???\??
?B????
@??g@?
?O@?:????
??O@??
?6????
??O@??g@?
???\?;????O@?'???
@99?
?O@?
@9/?
?O@?
????3
?O@??
? ???
??@??C
?CS??
?H?;?
@???_?
@???@??{[??C
_???
=@??
@??????
??????
??^??
@???
???^???
?@??
??^???
??????
?_8??
???^???
??????
9??^???
??_??{D??C
_???
?H?;?
@???
??O@??
=@??
?/@???
??/@??????
??/@??G
??????C
???@??W
*?W@???
?/@?}????
?/@??3
@?????
??@???
*?/@??S
?p????S@??
??/@?(
?R????
?/@?g????
??/@??'
?~????
??'@?
?/@?
?B9?
?/@?X????
??/@??#
?o????#@??
??/@?
?i????/@???@?
=@???
?R??
???]???\??
\???[?~?
???@?
?/@?
!@???
?/@?
A@?h
??/@?
@@??
?C????
??/@??
?$????
@??/@??
1@??
*?/@??w
?.????
?w@?
?/@?
????
??/@??
????
??/@?
????/@??7@?
=@??
????
Z???Y??
Y?,?
??7@?
?w@??
?w@?
?/@???^?
!@?)
!@??3@?
=@???
?R??
???X???W??
W???V?
??3@?
?w@?
?/@??
??????
??/@??????/@??????
??/@??
??????
??/@?
?V???
?w@?
?/@??G@??C@?????
??@???
?CV??
?H?;?
@???_?
@???@??{T???
_?h?
?H?;??
@???
@??C
@???_?
?{C??
_?L?
???_??
@??{B???
_???
??{A???
_??C
@??C
???_??
@???
@???
??{C??
_??C
@??C
_???
???_??
@??????
??{B???
_??C
@??C
_???
???_??
@??????
??{B???
_???
??{A???
_??C
@??C
???_??
??????
??????
?{C??
_???
??{A???
_??C
@??C
_???
A?.?
??{A???
_???
?{A???
_???
???_??
@???@9
??{B???
?H?;?
@???
@??C
?H?;?
@???_?
@??{C??
_?m?
????
_??{???
???{A???
_???
?H?;?
@???
@???_?
?{B???
_?>?
?H?;?
@???
@???_?
@??{B???
_?(?
???_??
???{C??
???_??
???{C??
_???
?@??
?E????
?B9?
?*???
? ???
?R(?
??_8
?{B???
_???
???_??
@???@9
??{B???
_??C
???_??
_???^??
???{D??C
?H?;?
@???
@??C
?H?;?
@???_?
@??{C??
_???
??'?
_??C
_???
?@?H
??????
?B9H
0@?)
?????
8@?)
?????
?????
?R(?
?{A???
_??C
???_??
_???^??
???{D??C
_???
???_??
??{B???
???_??
@? A
@?k?^?*i+?
??{C??
_???
???_??
?c????
@??-
??C_?(a
??{B???
_??C
_???
???_??
@?J?^?
@?)?^?
??{B???
_??C
@?J?^?(i*??C
_???
???_??
@?2?
??{B???
_??C
?H?;?
@???
]??c
]???
???\??
@?)?^?
??\??#@?
??\??
???\??#@?
@?)?^?
*??]?$
@?)?^?
?H?;?
@???_?
@??{H??C
_?C?
_???
?H?;?
@???
9??^??
??^??
?'@???\?
??#@??
\???\?
??^???\??
???^??
@???@9??
@???^??
????
???^??
?'@??
??^??
???^??
?#@??
???^??
?H?;?
@???_?
@??{I???
_???
???_??
@?)?^?
??{B???
_??C
@??C
_???
?@???
?@??{A???
_??C
_???
??{A???
_??C
@??C
_???
???_??
???{B???
_??C
?H?;??
@???
@??S@9??
@???_?
?{D??C
_?<?
@???
_???
??{A???
_??C
@??C
_??C
?H?;??
@???
8??^??C
??C^8
@???_?
@??{D??C
A?~?
??{A???
_???
???{A???
_???
 @??
??{A???
_??C
?I?;?)
@???
?A9?
,@??
??????
@??????
@??????
-@??
@??C
?A9H
@??????
????
@??c
@???
H?;?
@???_?
?{H??C
_???
??{A???
_??C
?H?;??
@???
???^??
@??C
@???_?
?{D??C
_?f?
?H?;??
@???
@??C
@??????
@???_?
?{C??
_?L?
??{A???
_???
??{A???
_??C
@??C
???_??
_??????
@??_@9s????
@???
??{C??
_???
?H?;?
@???
???^??
^???]?]
@???
@??????
^???]?
^???
????
?H?;?
@???_?
?{F???
_???
@??C
_???
@??????{A???
_???
???_??
@???@9?
??{B???
_???
@?X????
??{A???
_???
???_??
????
9?{B???
_???
????
@???
??_??{B???
_???
??{A???
_???
??{A???
_???
???_??
??????
??{B???
_???
???_??
??????
??{B???
_???
???_??
??????
??{B???
_??C
_???
_???
??{A???
_???
???{A???
_??{???
??{???
_??C
?|??C
_???
`???
?@?!
??{A???
_???
@???
@???
??_??{B???
_??C
????
_???
??{A???
_??C
@??C
_???
?{A???
_???
???_?
????
????
?{B???
_???
?H?;??
@???
@??'@??#@?
???^??
@???_?
@??{E???
_?s?
!@??
?H?;??
@???
@???_?
?{C??
_?K?
???_??
@??????
@??_@9
??{C??
_??C
@??C
_???
???_??
@??????
??{B???
_???
??{A???
_??C
_???
???_??
??????
_?)}
^???^??
_?)}
??{E???
_???
???_??
?{B???
_???
_???
??{A???
_???
??{A???
_??C
@??C
_???
???{A???
_???
??{A???
_???
??{A???
_??C
@??C
_???
??{A???
_???
???_??
??{B???
_???
??{A???
???_??
@??????
??????
????
??{C??
_???
???_??
@???@9??
??{B???
_???
??{B???
_???
??{B???
_???
???_??
??{B???
_???
@?5??? 
???_??
@???
??_??
@???
?{B???
_???
???_??
@???
??{B???
_???
@???
??{A???
_???
@???
??{A???
_???
@?R?
??{A???
_???
??{A???
_??C
@??C
_???
??{A???
_???
?H?;??
@???
???]??
@?8????
???^??????
@?G????
@?{?
@???^?
@???_?
?{F???
_???
?H?;??
@???
???\??
????
?4????
?,????
@???
^??????
??#@?
????
@?C?
@?K?
@???_?
?{H??C
_?E?
_???
??{A???
_??C
@??C
_???
??J}
???_??
@??????
??_@9
??{C??
_??C
@??????
@???
??{C??
_???
?H?;?
@???
@???
@?+????
?H?;?
@???_?
@??{E???
_???
?H?;?
@???
???^??
@??C
?R)}
^?)}
?H?;?
@???_?
?{E???
_?~?
???_??
?f????
????
@??????
????
??{B???
_???
???_??
@?????
?{B???
?H?;??
@???
?Y????
@???_?
@??{C??
???_??
@???@98
??{B???
_???
??{A???
_???
??{A???
_??{???
??{???
_???
?????
???{A???
_???
??{A???
_??C
@??C
?H?;?
@???
@??C
?F????
?H?;?
@???_?
@??{C??
_???
???_??
_?y????
@?o?
@???
??{C??
_???
??{A???
_???
??{A???
_???
??{A???
_??C
@??C
_???
???_??
@??????
??{B???
_???
@???
?IU??
`???
?w????
??w????{A???
_???
??{A???
_??C
@??C
_???
????{A???
??_??
??????
@?7?
????
?{C??
?H?;??
@???
@???_?
?{C??
_???
???_???
?6????
???^??
?2????
???^??
?8????
???^?
?%????
???^??
?+????
???^?)}
????
???^??
_?)}
????{E???
_??C
???_??
??_@9??
??{C??
_??C
@??C
??{C??
_??C
@??C
_???
???_??
@??????{B???
_??C
@??C
_??C
@??C
_???
??{A???
_???
???{A???
_???
???_??
@???@9
??{B???
@??????
@? a
??????
????
?{C??
_???
??{A???
_???
@??????{A???
_???
???_??
????
@??????
@?-?
??{B???
_???
?H?;??
@???
???]??
@??????
???^?P????
@???^?
@???_?
?{F???
_???
?H?;??
@???
???\??
?r????
??????
??????
??????
@???
????
??#@?+
@???
@???
@???_?
?{H??C
_???
???_??
??_@9??
??{C??
_??C
@??C
@??????
@?u?
??{C??
_???
???_??
@?J?^?
@?)?^?
@??????{B???
_???
?H?;?
@???
@???
???]??
@??c
@?~????
@?(A
A@??????
??H?;?
@???_?
?{E???
???_??
@?0?
??{B???
_???
A?)?
?{A???
_???
??{B???
???_??
=@??
??^?6
@???
@???^?(?
???^?(
=@??
?R??
=@???
@??{C??
_???
@??????{A???
_???
@?j???JQ
Iy??
?H???
H???
H???
H???
?7??
h???
?4??
h???
H???
?1??
H???
?"??
H???
?-??
h???
e%??
H???
H???
?:??
@???
_???
??_??{B???
_???
@?u?
@?k?
@???
??_??{B???
_???
@???
@?L?
@?B?
@???
??_??{B???
_???
?H?;?
@???
@?a???!|+?-?
A???!?
@?A???!,
A???!,
H???
?h???
?H?;?
@???_?
@??{E???
_???
@???
U@??
U@???
]@??
]@???
@???
@???
??_??{B???
?@9?
?R(?
??_??{C??
@?)1@y
??)}
????
@?????????
@?(!
@?(Q
@?(a
@?(%
%@??
@?)Q@?
@?(-
@?(q
@?(?
@?(?
@?(?
@?(E
E@??
@?)?@?
@?(5
5@??
@?)q@?
@?(=
?r??
!@?H
Q@?(
q@??
??@??
_???
???^??
E@??C^??
?j!H?)
_?L?@?*
Yi??
??C^?j!H?
??*!???
??C^??
_???@?J%?
l!H?K
k)!??
5@??C^??
_?Kq@?*
Yi??
_?)?@?
??)}
=@??
_?J?@?)
Yi??
??C^?
!@??
???^???
@???
????
??_??{E???
%@??
_?KQ@?*
Yi??
??)}
!@??
@???
@???
-@??
yi??
????
??_??{C??
_??C
??^??
aB9?
?R(a
U@??
@?)Y@?
U@??
??)}
A@qj
]@??
???^??
a@??
????
??_??{D??C
_??{???
?H?;?
@???
??G@?
???7
?3@??G@?)1@y
?G@?
@??3@?
?R)}
??/@?
?7@??/@?)
?/@?
@??7
?3@?
????
?7@?
?G@?(
@??7@?
?R?W
??G@?
?G@?
@??W@??k
???g
??k@???@?
?G@?
@?C???c`,?D?????
??R?
@??W@??_
??_@???@?
??S@?
?G@?
??R?
?W@??c
??R?O
??S@???@???
?S@??
?S@??c
??@??'
??G@?
Q@??#
??#@?
y@y?
?#@?
?S@??'@??#@?"
@?(u@y)y@y
}@??
???@?h
?#@?
?#@?(}@y)y@y
?S@??'@???@??#@?)}@y
??;@?h
??@??
@???@??#@?Jy@y)
?;@??
@?@???
6?M?
)@??#@?)y@y
??@??
@?))@?
?S@??'@??
?S@??'@??
@?]?
@??G@?(U
???G@?(Y
@??G@?(]
@??G@?(a
@?@???
?G@??S@??'@??
????
?S@???
???@??
??@?%?
?;@??
?;@?
??@???
??@??
?H?;?
@???_?
@???
@??{???
_???
@???
???_???^??
1@y?
????
1@y?
!@??
]@??
?R??
??]??{E???
@??O@y
??)}
????
??@9
_??C
?H?;?
@???
9??c
?H?;?
@???_?
@??{D??C
_???
?@9?
?R(?
^??????
??^??
=@??
^?)?@??
^?)q@?
5@??
yi??'
??'@??
^?)?@?
@??'@?
??)}
@???]??
@???
@??'@??
????
^?)a@?
??)}
@???]??
@???
????
??_??{F???
_??C
aB9?
?R(a
@??????
U@??
??^??
@?)Y@?
U@??
??)}
@???
????
??_??{D??C
_???
???_?h
??_?
????
??_?
?{B???
_???
@?"?
??_??{B???
_???
1@y?
?/@???
_???
?t??
@???
???]?A???!@
????
??]??
???]??
q@y?o
@??o@y
??)}
????
??]??
??]??
????
??^???
@?V?
??o@y?
@?(1
@???
??_??{G??
_??C
@???
@???
@???
@???
@???
????
?R??
@???
@???
?R??
1@y?
@?(1
?R??
??_??{D??C
_??C
????R?
????
@??C
_??C
aIJ?
????
@??C
_??C
??#?=?
?=?[
?I?;??
@???
???Z???Y??
@???
???X??
@???_?
@???@??{S??C
_???
?#@??'@?
?#@??
??'@?
?#@??
??C\??#@??
@?9?
??C\??
@??C
?C_???^???]??
]?!?
??_??
@???
@???
@???
??\??{I???
_???
???_??
@??????{B???
_???
?H?;?
@???
??C]???\??
\??????'
??'@??
?'@??
@??C
_??#
??#@?
y@y?
?#@?
_???^??#@?"
@?(u@y)y@y
}@??
???[?h
?#@?
?#@?(}@y)y@y
_???^???[??#@?)}@y
??[??
@???[??#@?Jy@y)
@?@???
)@??#@?)y@y
??[??
@?))@?
_???^??
_???^??
@???]?(U
????]?(Y
@???]?(]
@???]?(a
????
?'@?
_???
??[??
??[???
?C[??C
?C^??
?H?;?
@???_?
@??{J???
_???
@???
@???
???_???^??
_?z?
@??{E???
_???
???_??
??{B???
_???
???_??
@??????{B???
_???
@???
_??C
1@y?
@??????
??p?
?R??
@?j?
@?:?
?R??
1@y?
@?(1
?R??
??_??{D??C
_???
9??@9h
A@qj
??'?
_???
???_??
??{B???
_??C
?H?;?
@???
@?#???c?
@???
@???
??#@???
??'???
??#@?
?#@?
??#@?
?#@?
??\??
??\?
@???
??@??
?H?;?
@???_?
@??{H??C
?H?;?
@???
@??C
_???
?H?;?
@???_?
@??{C??
_???
??{???
?H?;?
@???
@??#
??R?
??/@??#
??#@?
?3@??W@??'@??#@???
?3@??W@??'@???
?7@??
A???!H
@??c@?
@??_@?
??R?C
??C@??;
??;@?
?G@??
@??;@?B?
?G@??
@?A?
?K@??
@?;?
@??[
???W
??[@??S@??O@??W@?2?
??@??
?H?;?
@???_?
@??C
@??{???
_?n?
????
@?A???!@
????
@??{A???
_???
?H?;?
@???
@??+
q@y??
?'@??
???G
?G@??
?H?;?
@???_?
@??{I???
??{???
?H?;?
@???
??/@??+
??+@?
@??'
??+@?
@??#
??+@?
??+@?
??+@?
@??/
??7@?
?7@?
?7@?
@??7@?)
?7@?
@???
??7@?
@??C
??7@?
@??G
??7@?
1@y?#
??7@?
?7@?
?7@?
??7@?(
q@y?7@?(1
?7@?
?7@?
??@9
?7@?2
?7@?
??R?
??????
?7@???
?'@??7@??3@??#@?
???w
?w@??
?H?;?
@???_?
@??{???
_?j?
@?)1@y
??)}
????
@???
_???
@???
?5?A???!?'???
@???
??_??{A???
_??{???
5@??
5@???
?{???
_???
AB9h
9@???
|+??
???_?h
??C_??
?C_??
??_?A???!x"??
?C_?
?C_?(
??_?!???!h
9@?H
??_?A???!?+??
???_?A???!x"?
?C_?H
?C_?h
??_?!???!?
?C_?
??_?!???!l
??_???
?{B???
_??{???
5@??
5@?O?
?{???
???^?
?R??
q????
9@??
???^?
??^?(
yi?H
9@??
?#yj?A
????
yi?(
9@??
?"yj?A
????
@???
??_??{C??
_???
?H?;?
=@?H
0:??
H?;?
?{A???
=@??
@?A???!P<?,?
@?A???!L
yi?~?
????
=@??
?R??
??_??{D??C
_???
@?)1@y
??)}
????
@???
_??{???
@??C
?H?;?
@???
?=??
EB9?
?R(E
M@??
Q@??#
???'@?
??#@??
??#@?
@???
??#@?
U@??#
?'@??
??'@?
M@??
@??#@?)
??+@??
???#
M@??
@??#@?)
??+@??
???#
?#@??
?#@?
@?;?
U@??#
?C@??
???@??
?_@?
U@??#
?#@?
??#@?
@???
??#@?
?[@??
?H?;?
@???_?
@??C
@??{???
_???
@?#?
??{A???
_???
@???
??{A???
_???
?@???
\6?!
?R??
???_?h
???_?!???!?1???
??_?A???!p
??_?!???!?1??
??_?!???!?:??
??_?!???!|
??_?A???!?'??
??_???
?{B???
_???
????
_???
@???
???_??
_?2?
@???
???^??
^?*?
??]8
?{E???
@???
???_??
_???
9???
??{C??
_??C
?R)?
?R)%
q???
_???
???_?
??_?
?R??
??_??
?)a!?(???
YH??{A???
_???
?H?;?
@???
? ???
?A???!?'?;?
@??#
@??/@??
@?)?
@??/@??
@?'?
?#@??
!???!?(??#
@? ?
?H?;?
@???_?
@??{M???
_?(?
?H?;?
@???
o???<?
?= ???
?>??C
?H?;?
@???_?
@??{H??C
_???
??{???O
$@?)A
?h?C?
yt?"yt??
??T`?
@?)?
?`"@?'?
?`.@?%?
?`:@??OA??{???#
??{???
@??{???#
??{???
?h&@?h
?h?C??
yu?"yu?
??T?
??F@???@?h&@?iF
?h?C?@
yu?"yu?
??Th
@?i"@?
??&@??
@??OB??{???#
_? ???
.?d3
??{???
$@??
?h?C??
yu?"yu?
??T?OB??
@??{???#
_??#
??{???_
(@??
?4$@??
T??}???
???~???
??6@??2@??
?}???
??B@??>@??
?}???
@???
?=??
?=d?
??*@??&@?
@???
??"@??
??&@??"
??&@?
?}??
@?Jii??&
?ji)??*D??"@?)il?
?ii,?c??T?6@??2@?
T?.@?j?
??2@??
?.@??.@??2
??2@?j
?J?}?+ij?
i*??2@?J
??2@?_
??T?B@??>@?
T?:@?O?
??>@??:
??>@?h
??:@??>
??.G?Jii?
??i)?
??Tx
??OC??WB??_A??{???#
?OC??WB??_A??{???#
_???
?t???
??????
??????
??{???
@??{???#
??{???
?h&@?h
?h?C??
yu?"yu?
??T?
??F@???@?h&@?iF
?h?C?@
yu?"yu?
??Th
@?i"@?
??&@??
@??OB??{???#
_? ???
.?S2
??{???
@??{???#
??{???
???@?
??OB??
@??{???#
??{???
?A??
Ti?A??
????Th
%@??{???#
@??{???#
_?_$
 A??
?_8?
 A??
?_8?
??{???
@??{???#
_??#
??{???O
?`??<???<h
??OA??{???#
_??#
??{???O
?`??<???<h
??OA??{???#
_??#
?W?;?
@?6 
T?OD??WC??{A??
@??C
_?h?
_?_$
_?_$
_?_$
_?_$
_?_$
_??#
??{???_
(?7??
T??A??
?(???
???7????
@????
8???
??OC??WB??_A??{???#
_?_$
_??#
??{???
@??{???#
_?_$
_??#
??{???
T?"C?
?7???w????
@????
?+??T
@??OC??WB??{???#
_?_$
_?_$
??{???
@??{???#
??{???
???@?
??OB??
@??{???#
?B??
??{???
?A??
E@?h
Th?A?
@??{???#
%@??{???#
?A??
T E@?
?0)@?
$A??
T*?_?_
?0-@?
$A??
T ?_?
0-@?
(C??
?05@?
??{???
@??{???#
_??#
??{???O
?`??<???<h
??OA??{???#
_??#
??{???O
?`??<???<h
??OA??{???#
_??#
?W?;?
@?6 
T?OD??WC??{A??
@??C
_???
_?_$
_?_$
_?_$
_?_$
_?_$
_?_$
_?_$
_?_$
_?_$
_??#
??{???_
?~`??
?(x???
T??A??
?B??
?(???
????????
@????
?R?F
????
??OC??WB??_A??{???#
_??#
??{???
E@?h
@??{???#
_?_$
_??#
??{???
??~??
T?"C?
?B??
?7???7????
@????
@??OC??WB??{???#
_??#
??{???
?I????
? ??=I
?`??<`??<`??<
@??{???#
_?_$
_?_$
??{???
@??{???#
??{???
@??{???#
??{???O
?+ @?
?H?^?i?^?
??F@?iF@???@?k?@?hF
??OA??{???#
_??#
?W?;??
?^?(
!@??
%@?)
T ???
.?T.
E@?@
?^??
%@9I
A???
?^??
???A?
T??A?
@?(Yh?
6??A?
? ??T
?v???
??A?
?^??
-D)?
?!??T?
?^??
T?OD??WC??{A??
@??C
?U?;??
@???
?^?i
?*!@??
5 E@?`
?R?#
?^?h
?^?h
)D))
@???_?
@??OD??{B??C
_? ???
.??-
?^?h
?@9)
????
??{???
@??{???#
_??#
??{???
@??{???#
_??#
??{???
?*!@?j
**%@?
? E@??
?^?i
?)!@?i
?^??jh?
T?&C?
5@??
Th&@?)
?^??ji?
?A??
????T
?^????
?^?h
%D)?
@??OB??{???#
_? ???
?h*@?
?^?_
?+!@?k
?^?h
????
?U?;??
@??C
??C@9?
@??#
?^?h
?!<A?x?
?^?c
@??3
???#
@??C_?
?^?h
)D)i
@???_?
@??OD??{B??C
_? ???
.??,
@??C_?
?^?J
?+!@?k
?^?h
?@9h
????
?????_$
?U?;??
@??C
??C@9?
?^?h
?!<A?
?^?c
@??3
T?C_?
!@??
T?C_????R
@??C_?
?^?h
)D)i
@???_?
@??OD??{B??C
_? ???
.?7,
@??C_?
?^?J
?+!@?k
?^?h
?@9h
????
?-???_$
?U?;??
@??C
??C@9?
@??#
?^?h
?!<A???
?^?c
@??3
???#
@??C_?
?^?h
)D)i
@???_?
@??OD??{B??C
_? ???
.??+
@??C_?
?^?J
?+!@?k
?^?h
?@9h
????
?????_$
?U?;??
@??C
??C@9?
?^?h
?!<A?H?
?^?c
@??3
T?C_?
T?C_?
@??C_?
?^?h
)D)i
@???_?
@??OD??{B??C
_? ???
.?f+
@??C_?
?^?J
?+!@?k
?^?h
?@9h
????
?\???_$
?U?;??
@??C
??C@9?
@??#
?^?h
?!<A???
?^?c
@??3
???#
@??C_?
?^?h
)D)i
@???_?
@??OD??{B??C
_? ???
@??C_?
?^?J
?+!@?k
?^?h
?@9h
????
?????_$
?U?;??
@??C
??C@9?
@??#
?^?h
?!<A?w?
?^?c
@??3
???#
@??C_?
?^?h
)D)i
@???_?
@??OD??{B??C
_? ???
.??*
@??C_?
?^?J
?+!@?k
?^?h
?@9h
????
?????_$
?U?;??
@??C
??C@9?
@??#
?^?h
?!<A?
?^?c
!@??3
???#
@??C_?
?^?h
)D)i
@???_?
@??OD??{B??C
_? ???
.?F*
@??C_?
?^?J
?+!@?k
?^?h
?@9h
????
?<???_$
?U?;??
@??C
??C@9?
@??#
?^?h
?!<A???
?^?c
@??3
???#
@??C_?
?^?h
)D)i
@???_?
@??OD??{B??C
_? ???
.??)
@??C_?
?^?J
?+!@?k
?^?h
?@9h
????
?????_$
?U?;??
@??C
??C@9?
@??#
?^?h
?!<A?W?
?^?c
%@??3
???#
@??C_?
?^?h
)D)i
@???_?
@??OD??{B??C
_? ???
.??)
@??C_?
?^?J
?+!@?k
?^?h
?@9h
????
?|???_$
?U?;??
@??C
??C@9?
@??#
?^?h
?!<A???
?^?c
)@??3
???#
@??C_?
?^?h
)D)i
@???_?
@??OD??{B??C
_? ???
.?&)
@??C_?
?^?J
?+!@?k
?^?h
?@9h
????
???_$
?U?;??
@??C
??C@9?
@??#
?^?h
?!<A???
?^?c
-@??3
???#
@??C_?
?^?h
)D)i
@???_?
@??OD??{B??C
_? ???
.??(
@??C_?
?^?J
?+!@?k
?^?h
?@9h
????
?????_$
?U?;??
@??C
??C@9?
@??#
?^?h
?!<A?7?
?^?c
1@??3
???#
@??C_?
?^?h
)D)i
@???_?
@??OD??{B??C
_? ???
.?f(
@??C_?
?^?J
?+!@?k
?^?h
?@9h
????
?\???_$
?U?;??
@??C
??C@9?
@??#
?^?h
?!<A???
?^?c
5@??3
???#
@??C_?
?^?h
)D)i
@???_?
@??OD??{B??C
_? ???
@??C_?
?^?J
?+!@?k
?^?h
?@9h
????
??????#
??{???
?*!@??
**%@?
? E@??
?^?i
?)!@????5h
@?J?^?j
?L-D)?
*?{???#
?R???
 ???
.??'
?^?i
?*!@?J
?^?h
?@9?
??????#
??{???O
??OA??{???#
_??#
?W?;??
T?OD??WC??{A??
@??C
_?x?
??{???
?*!@?
**%@?
* E@??
?^?i
?)!@?)
8i"@?
?)?^?
?A??
?^????
@?)?^?i
?+)D)h
@??OD??WC??_B??{???#
_? ???
.??&
?^?i
?*!@?J
?^?h
?@9?
?R???
??????#
?V?;??
A?U?
T?OC??WB??{A??
_???
??{???W
?*!@?j
**%@?
? E@??
?^?i
?)!@?I
?^??jh?
T?&C?
5@??
Th&@?)
?^??ji?
?A??
?A??T
?^????
?Ri*@?
2)?^?_
@?*-D)?
??OB??WA??{???#
.?&&
?R???
?W?;??
A???
T?OD??WC??{A??
@??C
??{???
?*!@??
**%@?
9i*@?
2)?^?_
@?*-D)?
@??OD??WC??_B??{???#
* E@??
?^?i
?)!@????5?
?A??
?!??T
@????
?^?h
?R???
?R???
????
.?o%
?^?i
?*!@?J
?^?h
?@9?
?R???
?f????#
??{???W
?*!@?
**%@?
? E@??
?^?i
?)!@??
??jh?
?^????
??jh?
?^????
@?)?^?i
?+)D)h
??OB??WA??{???#
.??$
?^?i
?*!@?J
?^?h
?@9?
?R???
??????#
??{???
?*!@??
**%@?
? E@??
?^?i
?)!@????5h
@?J?^?j
?L-D)?
*?{???#
.??$
?^?i
?*!@?J
?^?h
?@9?
?R???
??????#
??{???
?*!@??
**%@?
? E@??
?^?i
?)!@????5h
!@??
@?)?^?i
?+)D)h
@??OB??{???#
.?A$
?^?i
?*!@?J
?^?h
?@9?
?R???
?>????#
??{???
?*!@??
**%@?
@?)?^?i
?+)D)h
@??OB??
@??{???#
? E@??
?^?i
?)!@????5h
*???
?R???
?????
?^?h
@?)!@??
????
.??#
?^?i
?*!@?J
?^?h
?@9?
?R???
??????#
??{???
?)!@?
@?5y
%@??
?*!@??
**%@?
?^?h
%D)?
@??OB??{???#
* E@??
?^?i
?)!@????5h
 A??
?_8?
????
1???T?
2???
.?l#
?^?i
?*!@?J
?^?h
?@9h
????
?i????#
??{???O
?)!@?
@?4y
%@??
?*!@??
**%@?
?^?h
%D)?
??OA??{???#
_? E@??
?^?i
?)!@????5h
 A??
????
1!??T?
2???
?^?i
?*!@?J
?^?h
?@9h
????
????#
??{???
?*!@?
**%@?
*?{???#
? E@??
?^?i
?)!@?I??5h
@?)?^?i
?+)D)h
*???
.??"
?^?i
?*!@?J
?^?h
?@9?
?R???
??????#
??{???
?*!@??
**%@?
? E@??
?^?i
?)!@????5h
@?)?^?i
?+)D)h
@??{???#
.?l"
?^?i
?*!@?J
?^?h
?@9?
?????
?g????#
??{???W
%D)Vy
?*!@?j
**%@?
? E@??
?^?i
?)!@?
?^?h
%D)?
??OB??WA??{???#
?^?i
?*!@?J
?^?h
?@9h
????
????#
??{???W
%D)Vy
?*!@?j
**%@?
? E@??
?^?i
?)!@?
?^?h
%D)?
??OB??WA??{???#
.??!
?^?i
?*!@?J
?^?h
?@9h
????
??????#
??{???
@?(???_
??=(?^?)
h(?I
?`??<`??<`??<`??<`??<??
@??{???#
_??#
??{???
?)????
? ??=I
?`??<`??<`??<??
@??{???#
_?_$
_?_$
??{???
@??{???#
??{???
@??{???#
??{???O
?+ @?
?H?^?i?^?
??F@?iF@???@?k?@?hF
??OA??{???#
_??#
?X?;?
?^?(
!@??
%@?)
.?? 
E@?@
?^??
?!DA???
?^??
???A?
T??A?
6??A?
????T
?????
??A?
?^??
-D)?
?a??T?
?^??
T?OD??WC??_B??{A??C
_???
?U?;??
@???
?^?i
?*!@??
5 E@?`
?R?#
?^?h
?^?h
)D))
@???_?
@??OD??{B??C
.?F 
?^?h
?@9)
????
?????_$
??{???
@??{???#
_??#
??{???
@??{???#
_??#
??{???
?*!@?j
**%@?
? E@??
?^?i
?)!@?I
?^??jh?
T?&C?
5@??
Th&@?)
?^??ji?
?A??
????T
?^????
?^?h
%D)?
@??OB??{???#
?h*@?
?^?_
?+!@?k
?^?h
????
?????_$
?U?;??
@??C
??C@9?
@??#
?^?h
?!HA?
?^?c
@??3
???#
@??C_?
?^?h
)D)i
@???_?
@??OD??{B??C
@??C_?
?^?J
?+!@?k
?^?h
?@9h
????
?@???_$
?U?;??
@??C
??C@9?
?^?h
?!HA???
?^?c
@??3
T?C_?
!@??
T?C_????R
@??C_?
?^?h
)D)i
@???_?
@??OD??{B??C
@??C_?
?^?J
?+!@?k
?^?h
?@9h
????
?????_$
?U?;??
@??C
??C@9?
@??#
?^?h
?!HA?K?
?^?c
@??3
???#
@??C_?
?^?h
)D)i
@???_?
@??OD??{B??C
@??C_?
?^?J
?+!@?k
?^?h
?@9h
????
?p???_$
?U?;??
@??C
??C@9?
?^?h
?!HA???
?^?c
@??3
T?C_?
T?C_?
@??C_?
?^?h
)D)i
@???_?
@??OD??{B??C
@??C_?
?^?J
?+!@?k
?^?h
?@9h
????
?????_$
?U?;??
@??C
??C@9?
@??#
?^?h
?!HA?z?
?^?c
@??3
???#
@??C_?
?^?h
)D)i
@???_?
@??OD??{B??C
@??C_?
?^?J
?+!@?k
?^?h
?@9h
????
?????_$
?U?;??
@??C
??C@9?
@??#
?^?h
?!HA?
?^?c
@??3
???#
@??C_?
?^?h
)D)i
@???_?
@??OD??{B??C
@??C_?
?^?J
?+!@?k
?^?h
?@9h
????
?????_$
?U?;??
@??C
??C@9?
@??#
?^?h
?!HA???
?^?c
!@??3
???#
@??C_?
?^?h
)D)i
@???_?
@??OD??{B??C
@??C_?
?^?J
?+!@?k
?^?h
?@9h
????
?????_$
?U?;??
@??C
??C@9?
@??#
?^?h
?!HA?Z?
?^?c
@??3
???#
@??C_?
?^?h
)D)i
@???_?
@??OD??{B??C
@??C_?
?^?J
?+!@?k
?^?h
?@9h
????
???_$
?U?;??
@??C
??C@9?
@??#
?^?h
?!HA???
?^?c
%@??3
???#
@??C_?
?^?h
)D)i
@???_?
@??OD??{B??C
@??C_?
?^?J
?+!@?k
?^?h
?@9h
????
???_$
?U?;??
@??C
??C@9?
@??#
?^?h
?!HA???
?^?c
)@??3
???#
@??C_?
?^?h
)D)i
@???_?
@??OD??{B??C
@??C_?
?^?J
?+!@?k
?^?h
?@9h
????
?????_$
?U?;??
@??C
??C@9?
@??#
?^?h
?!HA?:?
?^?c
-@??3
???#
@??C_?
?^?h
)D)i
@???_?
@??OD??{B??C
@??C_?
?^?J
?+!@?k
?^?h
?@9h
????
?_???_$
?U?;??
@??C
??C@9?
@??#
?^?h
?!HA??
?^?c
1@??3
???#
@??C_?
?^?h
)D)i
@???_?
@??OD??{B??C
@??C_?
?^?J
?+!@?k
?^?h
?@9h
????
?????_$
?U?;??
@??C
??C@9?
@??#
?^?h
?!HA?z
?^?c
5@??3
???#
@??C_?
?^?h
)D)i
@???_?
@??OD??{B??C
@??C_?
?^?J
?+!@?k
?^?h
?@9h
????
??????#
??{???
?*!@??
**%@?
? E@??
?^?i
?)!@????5h
?A??
T(E@?
1???T?
@?J?^?j
?L-D)?
*?{???#
?^?i
?*!@?J
?^?h
?@9?
?D????#
??{???O
??OA??{???#
_??#
?W?;??
?!DA??~
-@?A
T?OD??WC??{A??
@??C
??{???
?*!@?
**%@?
* E@??
?^?i
?)!@?
Ti"@??
?)?^?
?A??
?^????
@?)?^?i
?+)D)h
@??OD??WC??_B??{???#
?^?i
?*!@?J
?^?h
?@9?
?R???
?u????#
?V?;??
?!DA??}
-@?A
T?OC??WB??{A??
_?_{
??{???W
?*!@?j
**%@?
? E@??
?^?i
?)!@?
?^??jh?
T?&C?
5@??
Th&@?)
?^??ji?
?A??
????T
?^????
?Ri*@?
2)?^?_
@?*-D)?
??OB??WA??{???#
?R???
?W?;??
?!DA?Z}
-@?A
T?OD??WC??{A??
@??C
_??z
??{???
?*!@??
**%@?
?i*@?
2)?^?_
@?*-D)?
@??OD??WC??_B??{???#
* E@??
?^?i
?)!@????5?
?(?^?
@? G
?*?^?
?A?_
?a??T
??i"@????
?R???
?^?h
?R???
????
?^?i
?*!@?J
?^?h
?@9?
?R???
????#
??{???W
?*!@?
**%@?
? E@??
?^?i
?)!@?i
??jh?
?A??
T E@?
@?))@??
?^????
??jh?
?A??
T E@?
@?))@??
?^????
@?)?^?i
?+)D)h
??OB??WA??{???#
?^?i
?*!@?J
?^?h
?@9?
?R???
??????#
??{???
?*!@??
**%@?
? E@??
?^?i
?)!@????5h
@?J?^?j
?L-D)?
*?{???#
?^?i
?*!@?J
?^?h
?@9?
?R???
?<????#
??{???
?*!@??
**%@?
? E@??
?^?i
?)!@????5h
!@??
@?)?^?i
?+)D)h
@??OB??{???#
?^?i
?*!@?J
?^?h
?@9?
?R???
??????#
??{???
?*!@??
**%@?
@?)?^?i
?+)D)h
@??OB??
@??{???#
? E@??
?^?i
?)!@????5h
*???
?R???
?????
?^?h
@?)!@??
????
????
?^?i
?*!@?J
?^?h
?@9?
?R???
?{????#
??{???
?)!@?
@?5y
%@??
?*!@??
**%@?
?^?h
%D)?
@??OB??{???#
* E@??
?^?i
?)!@????5h
 A??
?_??
1A??T
-@??
1A??T?
2???
????
?^?i
?*!@?J
?^?h
?@9h
????
????#
??{???O
?)!@?
@?4y
%@??
?*!@??
**%@?
?^?h
%D)?
??OA??{???#
_? E@??
?^?i
?)!@????5h
T(?_?
1???T
1???T?
2???
????
?^?i
?*!@?J
?^?h
?@9h
????
??????#
??{???
?*!@?
**%@?
*?{???#
? E@??
?^?i
?)!@?I??5h
@?)?^?i
?+)D)h
*???
????
?^?i
?*!@?J
?^?h
?@9?
?R???
?Y????#
??{???
?*!@??
**%@?
? E@??
?^?i
?)!@????5h
@?)?^?i
?+)D)h
@??{???#
_?????
?^?i
?*!@?J
?^?h
?@9?
?????
????#
??{???W
%D)Vy
?*!@?j
**%@?
? E@??
?^?i
?)!@?
?^?h
%D)?
??OB??WA??{???#
_?????
?^?i
?*!@?J
?^?h
?@9h
????
??????#
??{???W
%D)Vy
?*!@?j
**%@?
? E@??
?^?i
?)!@?
?^?h
%D)?
??OB??WA??{???#
_?????
?^?i
?*!@?J
?^?h
?@9h
????
?K????#
??{???
????
? ??=?
?`"?=oz
@??{???#
_?_$
_?_$
??{???
@??{???#
??{???
@??{???#
??{???O
?^?)?^?
??F@?iF@???@?k?@?hF
??OA??{???#
_??#
??{???
?^?(
!@??
E@?@
@??{???#
_??#
??{???
@?)?^?
!@?)
%@9?
@?)?^?
@?)?^?
)D))
@??{???#
_?????
????
????_$
??{???
@??{???#
_??#
?Y?;??
@???
?*!@??
* E@?`
?R?C
?^?h
?!PA?
?^?v
???@??
A??w
?^?h
-D))
@???_?
@??OF??WE??_D??{B???
_?????
?^?h
?@9)
????
????#
??{???
7?{???#
_?oy
?Y?;??
@???
?*!@??
* E@?`
?R?C
?^?h
@?7x
?!PA??w
?^?v
???@??
A?rw
?>@?
@??>@?
?^?h
-D))
@???_?
??OF??WE??_D??gC??{B???
_?????
?^?h
?@9)
????
??????#
?Y?;??
@???
?*!@??
* E@?`
?R?C
?^?h
?!PA??v
?^?v
???@??
A??v
@??>@?
?^?h
-D))
@???_?
@??OF??WE??_D??{B???
_?????
?^?h
?@9)
????
????#
?Y?;??
@???
?*!@??
* E@?`
?R?C
?^?h
@?3w
?!PA?
?^?v
???@??
A?nv
?~@?
?^?h
-D))
@???_?
??OF??WE??_D??gC??{B???
_?????
?^?h
?@9)
????
??????#
?Y?;??
@???
?*!@??
* E@?`
?R?C
?^?h
?!PA??u
?^?v
???@??
A??u
?^?h
-D))
@???_?
@??OF??WE??_D??{B???
_?????
?^?h
?@9)
????
????#
?Y?;??
@???
?*!@??
? E@?`
?R?C
?^?h
?!PA?|u
?^?v
???@??
A?ku
?^?h
-D))
@???_?
@??OF??WE??_D??{B???
_?????
?^?h
?@9)
????
??????#
?Y?;??
@???
?*!@??
? E@?`
?R?C
?^?h
?!PA??t
?^?v
???@??
A??t
?^?h
-D))
@???_?
@??OF??WE??_D??{B???
_?????
?^?h
?@9)
????
????#
?Y?;??
@???
?*!@??
? E@?`
?R?C
?^?h
?!PA??t
?^?v
???@??
A?ot
?^?h
-D))
@???_?
@??OF??WE??_D??{B???
_?????
?^?h
?@9)
????
??????#
?Y?;??
@???
?*!@??
? E@?`
?R?C
?^?h
?!PA?
?^?v
???@??
A??s
?^?h
-D))
@???_?
@??OF??WE??_D??{B???
_?????
?^?h
?@9)
????
????#
?X?;??
?*!@??
 E@?`
?R?C
?^?h
?!PA??s
?^?u
???@??
A?ss
!@??
?^?h
-D))
@??OF??WE??_D??{C???
_?????
?^?h
?@9)
????
??????#
?X?;??
?*!@??
 E@?`
?R?C
?^?h
?!PA?
?^?u
???@??
A??r
?^?h
-D))
@??OF??WE??_D??{C???
_?????
?^?h
?@9)
????
????#
?X?;??
@???
@??C
?*!@??
5 E@??
?R?C
?^?h
?!PA??r
?^?u
???@??
A?xr
%@??
?^?h
-D))
@???_?
??OF??WE??_D??{C???
_?????
?^?h
?@9)
????
??????#
?Y?;??
@???
?*!@??
? E@?`
?R?C
?^?h
?!PA?
?^?v
???@??
A??q
)@??
?^?h
-D))
@???_?
@??OF??WE??_D??{B???
_?????
?^?h
?@9)
????
????#
?V?;??
@???
@??#
!@??
E@?@
@??#
9(?^?h
???A?
%@??
T??A?
%@??
??&C?
5@??
T??A?
?A??T?
)@??
?????
)D))
T????
?^?h
-D)?
@???_?
@??OE??WD??{B???
_?????
?^?h
?@9)
????
?^?h
?@9)
????
????#
??{???
7?{???#
_??r
?U?;??
@???
@??#
?*!@?*
* E@?`
?R?#
?^?i
?^?h
)D))
@???_?
@??OD??{B??C
_?????
?^?h
?@9)
????
????#
?V?;??
@???
@??#
!@??
@???_?
@??OE??WD??{B???
E@?@
?R?#
9t???W??5h
?^?h
1@??
????Th
?^?h
)D))
????T????
?^?h
?@9)
????
??????#
??{???
?@9?
???{???#
_??#
?V?;??
@??#
?(?^?
?j!@?J
5`E@?`
?R?#
9(?^?i
?*!@??
?^?h
-D)?
@???_?
??OD??WC??{B??C
_?????
??{???
???_
??=(?^?)
h(?I
?`??<`??<`??<`??<`??<?q
@??{???#
_??#
??{???
????
? ??=?
?`"?=`q
@??{???#
_?_$
_?_$
??{???
@??{???#
??{???
@??{???#
??{???O
?^?)?^?
??F@?iF@???@?k?@?hF
??OA??{???#
_??#
??{???
?^?(
!@??
E@?@
@??{???#
_??#
??{???
@?)?^?
!@?)
%@9?
@?)?^?
@?)?^?
)D))
@??{???#
_?????
????
????_$
??{???
@??{???#
_??#
??{???
@??{???#
_??#
?Y?;??
@???
?*!@??
* E@?`
?R?C
?^?h
?!XA??n
?^?v
???@??
?!DA??n
?^?h
-D))
@???_?
@??OF??WE??_D??{B???
_?????
?^?h
?@9)
????
??????#
?Y?;??
@???
?*!@??
* E@?`
?R?C
?^?h
@?&o
?!XA?rn
?^?v
???@??
?!DA?an
?>@?
@??>@?
?^?h
-D))
@???_?
??OF??WE??_D??gC??{B???
_?????
?^?h
?@9)
????
?w????#
?Y?;??
@???
?*!@??
* E@?`
?R?C
?^?h
?!XA??m
?^?v
???@??
?!DA??m
@??>@?
?^?h
-D))
@???_?
@??OF??WE??_D??{B???
_?????
?^?h
?@9)
????
??????#
?Y?;??
@???
?*!@??
* E@?`
?R?C
?^?h
@?"n
?!XA?nm
?^?v
???@??
?!DA?]m
?~@?
?^?h
-D))
@???_?
??OF??WE??_D??gC??{B???
_?????
?^?h
?@9)
????
?s????#
?Y?;??
@???
?*!@??
* E@?`
?R?C
?^?h
?!XA??l
?^?v
???@??
?!DA??l
?^?h
-D))
@???_?
@??OF??WE??_D??{B???
_?????
?^?h
?@9)
????
??????#
?Y?;??
@???
?*!@??
? E@?`
?R?C
?^?h
?!XA?kl
?^?v
???@??
?!DA?Zl
?^?h
-D))
@???_?
@??OF??WE??_D??{B???
_?????
?^?h
?@9)
????
?w????#
?Y?;??
@???
?*!@??
? E@?`
?R?C
?^?h
?!XA??k
?^?v
???@??
?!DA??k
?^?h
-D))
@???_?
@??OF??WE??_D??{B???
_?????
?^?h
?@9)
????
??????#
?Y?;??
@???
?*!@??
? E@?`
?R?C
?^?h
?!XA?ok
?^?v
???@??
?!DA?^k
?^?h
-D))
@???_?
@??OF??WE??_D??{B???
_?????
?^?h
?@9)
????
?{????#
?Y?;??
@???
?*!@??
? E@?`
?R?C
?^?h
?!XA??j
?^?v
???@??
?!DA??j
?^?h
-D))
@???_?
@??OF??WE??_D??{B???
_?????
?^?h
?@9)
????
??????#
?X?;??
?*!@??
 E@?`
?R?C
?^?h
?!XA?sj
?^?u
???@??
?!DA?bj
!@??
?^?h
-D))
@??OF??WE??_D??{C???
_?????
?^?h
?@9)
????
????#
?X?;??
?*!@??
 E@?`
?R?C
?^?h
?!XA??i
?^?u
???@??
?!DA??i
?^?h
-D))
@??OF??WE??_D??{C???
_?????
?^?h
?@9)
????
????#
?X?;??
@???
@??C
?*!@??
5 E@??
?R?C
?^?h
?!XA?xi
?^?u
???@??
?!DA?gi
%@??
?^?h
-D))
@???_?
??OF??WE??_D??{C???
_?????
?^?h
?@9)
????
??????#
?Y?;??
@???
?*!@??
? E@?`
?R?C
?^?h
?!XA??h
?^?v
???@??
?!DA??h
)@??
?^?h
-D))
@???_?
@??OF??WE??_D??{B???
_?????
?^?h
?@9)
????
????#
?W?;??
@???
@??#
!@??
@???_?
??OE??WD??_C??{B???
E@?@
@??#
9(?^?h
???A?
%@??
T??A?
%@??
??&C?
5@??
T??A?
????T?
)@??
?????
????h
?^?h
-D)?
?@??T????
)D))
?@??T????
?^?h
?@9)
????
?^?h
?@9)
?k????#
?U?;??
@???
@??#
?*!@?j
* E@?`
?R?#
?^?i
5@??
?^?h
)D))
@???_?
@??OD??{B??C
_?????
?^?h
?@9)
????
????#
?V?;??
@???
@??#
!@??
@???_?
@??OE??WD??{B???
E@?@
?R?#
9t???W??5h
?^?h
1@??
????Th
?^?h
)D))
????T????
?^?h
?@9)
????
??????#
??{???
?@9?
???{???#
_??#
?V?;??
@??#
?(?^?
?j!@?J
5`E@?`
?R?#
9(?^?i
?*!@??
?^?h
-D)?
@???_?
??OD??WC??{B??C
_?????
?V?;??
@??#
?(?^?
?j!@?J
5`E@?`
?R?#
9(?^?i
?*!@??
?^?h
-D)?
@???_?
??OD??WC??{B??C
_?????
??{???
??????
? ??=I
?`&?=-h
@??{???#
_?_$
_?_$
??{???
@??{???#
??{???
@??{???#
??{???
@??{???#
??{???O
?+ @?
?H?^?i?^?
??F@?iF@???@?k?@?hF
??OA??{???#
_?_$
?????
x,??
_??#
??{???
T???q?
@??{???#
?Rpc
?????????J?
?IN?R?M?r`
??{???#
_??#
??{???
??{???#
????43
A;??
dA?5c
????
??{???
@??g
@??{???#
_??#
??{???
@??g
@??{???#
_?_$
??{???
@??{???#
??{???W
??&@?h
???C?
yu?"yu? 
??T?OB??WA??{???#
??{???
?R!tA?xQ
??{???#
_??#
??{???
4@?6|@??
?`.@??2???
?}??
?y2@??
T(?}??
?)????
?}??b
t?E??
??2??h2
??OD??WC??_B??
@??{???#
_?h&D)
????
????
??{???
@@?6|@??
Th?F?
??2???
1??5?}??
?x>@??
?}??
?)????
?}?ub
tbG?
??2??h>
??OD??WC??_B??
@??{???#
_?h&D)
????
????
??{???W
?D??
??61????}?)f
??&D)
T?"@???~??
??&D)
T?&@??"
@??&
?Uy)??"@??WA?Sy)??OB??{???#
_?????
??{???
@??{???#
??{???
T?{???#
_?????
??{???
?R?f
?!xA?BlA??f
????45
A;??
dA??a
????
??????
 ??=I
??{???O
@?!?
?h?C?
o`??<???<`
?=??
?h.@?a??<
?=?.
?h:@?`??<
?=?:
????<a??<?OA??{???#
_??#
?W?;?
?( @?
?($@?
?h"@??"@??"
?h&@??&@??&
?h*@??*@??*
?h.@??.@??.
?h2@??2@??2
?h6@??6@??6
?h:@??:@??:
?h>@??>@??>
?hB@??B@??B
T?OD??WC??{A??
@??C
_?Ua
*Hqa9Iq!9?
_??#
??{???
@??{???#
??{???
q???
?{???#
_??#
??{???
??{???#
_?_$
@??e
??{???O
@??e
??OA??{???#
_??#
??{???
@??{???#
_??#
??{???
@??{???#
_?_$
@?)A
??{???
@??{???#
??{???
@??e
??{???
@??{???#
????T?
_??#
??{???
?|??
@?t?
@??OC??WB??{???#
D?)?x? 
?A??T?
_?_$
??{???
@??{???#
????T?
_??#
??{???_
T?~A?
??B??
@?w?
T??~??
?~?Nd
??OC??WB??_A??{???#
?(D@??
D?)?x? 
?A??T?
_??#
?X?;??
?h @9?
????
A?9?A??
@???
?????
A??d
?H'A??
yi??
@??d
???A??
@?????
?A?zd
?('A??
@?td
@???
@?(c
????
6?+@?
???@9H
@???_?
??OJ??WI??_H??gG??{F???
???q_
6?+@??_
???@9?
??@9?
@??_
@?)d
?C?iU???3
?V?;?
@???A??
??????i
9???
??T?
???A?
%@??
???A?
%@??
???A?
@9?3@?H?
%@??
*?3@?H?
?????
?7??????
qA??T?
?_8?3@??
??T?
9???
????
?O@??
?#??T
????T*
qA??T
@?L?A?_
?`??T?
9???
???A??
%@??
???A?
%@??
?w???\
?A??T?
@???_?
??OO??WN??_M??gL??oK??{J??
????????
@??a
?H?;?I
?R?c
@??+@???
?R??
???c
?h?A?
???A?
%@??
%@??
???????
A9?'@??
??#@??
A9?+@?
?h?A?
%@??
????A9??
5h?A?
????Th
)@??
?????
?cA9?3@?
@???
T?/@?
??cA9??
@??3@?
?A??
?M?_?L?
?#??T?cA9?3@?l
k?A??7@??c
?????_
@9+??4
q???TM
k???T
?h?A?
???A?
%@??
6?+@??]
??cA9h
6?7@??]
??OY??WX??_W??gV??oU??{T???
%@??
??????S??????
7?cA9?
??+@??]
??cA9h?
6?7@??]
?H?;?I
?R?c
@??+@???
?R??
???c
?h?A?
???A?
%@??
%@??
???????
A9?'@??
??#@??
A9?+@?
?h?A?
%@??
????A9??
5h?A?
????Th
)@??
?????
?cA9?3@?
@???
T?/@?
??cA9??
@??3@?
?A??
?M?_?L?
?#??T?cA9?3@?l
k?A??7@??c
?????_
@9+??4
q???TM
k???T
?h?A?
???A?
%@??
6?+@??\
??cA9h
6?7@??\
??OY??WX??_W??gV??oU??{T???
%@??
??????S??????
7?cA9?
??+@?~\
??cA9h?
6?7@?z\
?H?;?I
?R?c
@??+@???
?R??
???c
?h?A?
???A?
%@??
%@??
???????
A9?'@??
??#@??
A9?+@?
?h?A?
%@??
????A9??
5h?A?
????Th
)@??
?????
?cA9?3@?
@???
T?/@?
??cA9??
@??3@?
?A??
?M?_?L?
?#??T?cA9?3@?l
k?A??7@??c
?????_
@9+??4
q???TM
k???T
?h?A?
???A?
%@??
6?+@?~[
??cA9h
6?7@?z[
??OY??WX??_W??gV??oU??{T???
%@??
??????S??????
7?cA9?
??+@?U[
??cA9h?
6?7@?Q[
?H?;?I
?R?c
@??+@???
?R??
???c
?h?A?
???A?
%@??
%@??
???????
A9?'@??
??#@??
A9?+@?
?h?A?
%@??
????A9??
5h?A?
????Th
)@??
?????
?cA9?3@?
@???
T?/@?
??cA9??
@??3@?
?A??
?M?_?L?
?#??T?cA9?3@?l
k?A??7@??c
?????_
@9+??4
q???TM
k???T
?h?A?
???A?
%@??
6?+@?UZ
??cA9h
6?7@?QZ
??OY??WX??_W??gV??oU??{T???
%@??
??????S??????
7?cA9?
??+@?,Z
??cA9h?
6?7@?(Z
?H?;?I
?R?c
@??+@???
?R??
???c
?h?A?
???A?
%@??
%@??
???????
A9?'@??
??#@??
A9?+@?
?h?A?
%@??
????A9??
5h?A?
????Th
)@??
?????
?cA9?3@?
@???
T?/@?
??cA9??
@??3@?
?A??
?M?_?L?
?#??T?cA9?3@?l
k?A??7@??c
?????_
@9+??4
q???TM
k???T
?h?A?
???A?
%@??
6?+@?,Y
??cA9h
6?7@?(Y
??OY??WX??_W??gV??oU??{T???
%@??
??????S??????
7?cA9?
??+@?
??cA9h?
6?7@??X
?H?;?I
?R?c
@??+@???
?R??
???c
?h?A?
???A?
%@??
%@??
???????
A9?'@??
??#@??
A9?+@?
?h?A?
%@??
????A9??
5h?A?
????Th
)@??
?????
?cA9?3@?
@???
T?/@?
??cA9??
@??3@?
?A??
?M?_?L?
?#??T?cA9?3@?l
k?A??7@??c
?????_
@9+??4
q???TM
k???T
?h?A?
???A?
%@??
6?+@?
??cA9h
6?7@??W
??OY??WX??_W??gV??oU??{T???
%@??
??????S??????
7?cA9?
??+@??W
??cA9h?
6?7@??W
?H?;??
??cA9?
@??7@?*
?R?C
?h?A?
???A?
%@??
%@??
???????
??cA9?3@??+@?
??/@??cA9
???c
??cA9?7@?
?h?A?
%@??
???#B9?3B9?
5h?A?
?a??Th
)@??
?????
??A9??@??
4?'@??C
T?G@?
??+@??
???A9?C
??'@???@?
?A??
?M?_?L?
?#??T??A9??@?l
k?A??C@???
?????_
@9+??4
q???TM
k???T
?h?A?
???A?
%@??
??cA9h
6?7@??V
???A9h
6?C@??V
??O[??WZ??_Y??gX??oW??{V??
%@??
??????S??????
??cA9?
7??A9?
??7@??V
???A9h?
6?C@??V
?H?;??
??cA9?
@??7@?*
?R?C
?h?A?
???A?
%@??
%@??
???????
??cA9?3@??+@?
??/@??cA9
???c
??cA9?7@?
?h?A?
%@??
???#B9?3B9?
5h?A?
?a??Th
)@??
?????
??A9??@??
4?'@??C
T?G@?
??+@??
???A9?C
??'@???@?
?A??
?M?_?L?
?#??T??A9??@?l
k?A??C@???
?????_
@9+??4
q???TM
k???T
?h?A?
???A?
%@??
??cA9h
6?7@??U
???A9h
6?C@??U
??O[??WZ??_Y??gX??oW??{V??
%@??
??????S??????
??cA9?
7??A9?
??7@??U
???A9h?
6?C@??U
?H?;??
??cA9?
@??7@?*
?R?C
?h?A?
???A?
%@??
%@??
???????
??cA9?3@??+@?
??/@??cA9
???c
??cA9?7@?
?h?A?
%@??
???#B9?3B9?
5h?A?
?a??Th
)@??
?????
??A9??@??
4?'@??C
T?G@?
??+@??
???A9?C
??'@???@?
?A??
?M?_?L?
?#??T??A9??@?l
k?A??C@???
?????_
@9+??4
q???TM
k???T
?h?A?
???A?
%@??
??cA9h
6?7@??T
???A9h
6?C@??T
??O[??WZ??_Y??gX??oW??{V??
%@??
??????S??????
??cA9?
7??A9?
??7@?tT
???A9h?
6?C@?pT
?X?;??
?A??;
@??#
?????
A??X
??&A??
yi??
!@??
?!?A?"h
???@9?
@???
?R??
?h?A?
???A?
%@??
%@??
???????
???@9?
@??/@?
@???@9
????
???@9?
?h?A?
%@??
5h?A?
????Th
)@??
?????
?/@?
???@9
@?J?
rH??
A??????
?B?,??
?h?A?
???A?
%@??
???@9h
@??S
6?+@??S
??OX??WW??_V??gU??oT??{S??C
%@??
??????S??????
????
??4???????R!?7??
????
@??W
???@9?
@?US
A9h?
6?+@?QS
@?M?A?_
@?*E
_?*a@9_
???A8_
*e@9_
k???T?
?M-@8?
?M=@8?
?MM@8?
?M]@8?
?Mm@8?
?M}@8?
?M?@8?
?M?@8?
?M?@8?
?M?@8?
?M?@8?
?M?@8?
?M?@8?
?M?@8?
?M-A8?
?M=A8?
?MMA8?
?M]A8?
?MmA8?
?M}A8?
?M?A8?
?M?A8?
_?? 
T?A!??
T???
_??Y
*J?A?Iii8
???T_
?l??T
?_8_?
q???T?
?k?A??
?iii8
_??#
???8??
????9??
????
?V?;??
???>???=??V
???=??V
@???_?
*?OS??WR??_Q??{P??
_??Q
??????#
??{???
@??{???#
??4???????R!?7??
????
?X?;??
?h @9?
????
??FA?9?A??
@???
?????
DA?7V
?H'A??
yi??
@?1V
???A??
@?????
?('A??
@???
@?(c
????
6?+@??Q
???@9H
@??Q
@???_?
??OJ??WI??_H??gG??{F???
_?????????
6?+@??Q
???@9?
??@9?
@??Q
@??U
?C?iU???3
?S?;??
@???A??
??????i
9???
??T?
???A?
%@??
?7???(
@??3@?
*?3@?(?
?????
qA??T?
?_??3@??
??T?
9???
????
@???
????T
??T*
qA??T
@?L?A?_
?`??T?
9???
?A??
???A?
%@??
??????
?A??T(
@???_?
??OO??WN??_M??gL??oK??{J??
????????
@? S
?J?;?I
@???
?R?c
@??+@???
?R??
???c
???A?
%@??
???A?
%@??
A9?'@??
??#@??
A9?+@?
???A?
%@??
???w@???
5??A?
????T?
)@??
?????
?cA9?3@?
@???
T?/@?
??cA9??
@??3@?
?A??
?M?_?L?
?#??T?cA9?3@?l
k?A??7@??c
?????_
@9+??4
q???TM
k???T
???A?
%@??
????????A?
%@??
6?+@?JO
??cA9?
6?7@?EO
??O^??W]??_\??g[??oZ??{Y???
_??N
7?cA9?
??+@?*O
??cA9h?
6?7@?&O
?J?;?I
@???
?R?c
@??+@???
?R??
???c
???A?
%@??
???A?
%@??
A9?'@??
??#@??
A9?+@?
???A?
%@??
???w@???
5??A?
????T?
)@??
?????
?cA9?3@?
@???
T?/@?
??cA9??
@??3@?
?A??
?M?_?L?
?#??T?cA9?3@?l
k?A??7@??c
?????_
@9+??4
q???TM
k???T
???A?
%@??
????????A?
%@??
6?+@?
??cA9?
6?7@?
??O^??W]??_\??g[??oZ??{Y???
_?tM
7?cA9?
??+@??M
??cA9h?
6?7@??M
?J?;?I
@???
?R?c
@??+@???
?R??
???c
???A?
%@??
???A?
%@??
A9?'@??
??#@??
A9?+@?
???A?
%@??
???w@???
5??A?
????T?
)@??
?????
?cA9?3@?
@???
T?/@?
??cA9??
@??3@?
?A??
?M?_?L?
?#??T?cA9?3@?l
k?A??7@??c
?????_
@9+??4
q???TM
k???T
???A?
%@??
????????A?
%@??
6?+@??L
??cA9?
6?7@??L
??O^??W]??_\??g[??oZ??{Y???
_?>L
7?cA9?
??+@??L
??cA9h?
6?7@??L
?J?;?I
@???
?R?c
@??+@???
?R??
???c
???A?
%@??
???A?
%@??
A9?'@??
??#@??
A9?+@?
???A?
%@??
???w@???
5??A?
????T?
)@??
?????
?cA9?3@?
@???
T?/@?
??cA9??
@??3@?
?A??
?M?_?L?
?#??T?cA9?3@?l
k?A??7@??c
?????_
@9+??4
q???TM
k???T
???A?
%@??
????????A?
%@??
6?+@??K
??cA9?
6?7@??K
??O^??W]??_\??g[??oZ??{Y???
7?cA9?
??+@??K
??cA9h?
6?7@??K
?J?;?I
@???
?R?c
@??+@???
?R??
???c
???A?
%@??
???A?
%@??
A9?'@??
??#@??
A9?+@?
???A?
%@??
???w@???
5??A?
????T?
)@??
?????
?cA9?3@?
@???
T?/@?
??cA9??
@??3@?
?A??
?M?_?L?
?#??T?cA9?3@?l
k?A??7@??c
?????_
@9+??4
q???TM
k???T
???A?
%@??
????????A?
%@??
6?+@?rJ
??cA9?
6?7@?mJ
??O^??W]??_\??g[??oZ??{Y???
_??I
7?cA9?
??+@?RJ
??cA9h?
6?7@?NJ
?J?;?I
@???
?R?c
@??+@???
?R??
???c
???A?
%@??
???A?
%@??
A9?'@??
??#@??
A9?+@?
???A?
%@??
???w@???
5??A?
????T?
)@??
?????
?cA9?3@?
@???
T?/@?
??cA9??
@??3@?
?A??
?M?_?L?
?#??T?cA9?3@?l
k?A??7@??c
?????_
@9+??4
q???TM
k???T
???A?
%@??
????????A?
%@??
6?+@?<I
??cA9?
6?7@?7I
??O^??W]??_\??g[??oZ??{Y???
_??H
7?cA9?
??+@?
??cA9h?
6?7@?
??{???o
?H?;??
??cA9z
@??7@?*
?R?C
???A?
%@??
???A?
%@??
7?cA9?3@??+@?
??/@??cA9
???c
??cA9?7@?
???A?
%@??
5??A?
????T?
)@??
?????
??A9??@??
4?'@??C
T?G@?
??+@??
???A9?C
??'@???@?
?A??
?M?_?L?
?#??T??A9??@?l
k?A??C@???
?????_
@9+??4
q???TM
k???T
???A?
%@??
????????A?
%@??
??cA9h
6?7@?
???A9h
6?C@?
??OE??WD??_C??gB??oA??{???#
_?lG
??cA9?
7??A9?
??7@??G
???A9h?
6?C@??G
??{???o
?H?;??
??cA9z
@??7@?*
?R?C
???A?
%@??
???A?
%@??
7?cA9?3@??+@?
??/@??cA9
???c
??cA9?7@?
???A?
%@??
5??A?
????T?
)@??
?????
??A9??@??
4?'@??C
T?G@?
??+@??
???A9?C
??'@???@?
?A??
?M?_?L?
?#??T??A9??@?l
k?A??C@???
?????_
@9+??4
q???TM
k???T
???A?
%@??
????????A?
%@??
??cA9h
6?7@??F
???A9h
6?C@??F
??OE??WD??_C??gB??oA??{???#
_?<F
??cA9?
7??A9?
??7@??F
???A9h?
6?C@??F
??{???o
?H?;??
??cA9z
@??7@?*
?R?C
???A?
%@??
???A?
%@??
7?cA9?3@??+@?
??/@??cA9
???c
??cA9?7@?
???A?
%@??
5??A?
????T?
)@??
?????
??A9??@??
4?'@??C
T?G@?
??+@??
???A9?C
??'@???@?
?A??
?M?_?L?
?#??T??A9??@?l
k?A??C@???
?????_
@9+??4
q???TM
k???T
???A?
%@??
????????A?
%@??
??cA9h
6?7@??E
???A9h
6?C@??E
??OE??WD??_C??gB??oA??{???#
??cA9?
7??A9?
??7@??E
???A9h?
6?C@??E
?X?;??
??FA?
?A???
??#@???
?????
DA??I
??&A??
yi?`
1@??
?!?A?"h
???#@??
???@9?
@???
?R??
???#
???A?
%@??
???A?
%@??
7??@9?
@??3@?
@???@9
????
???@9?
???A?
%@??
5??A?
????T?
)@??
?????
?3@?
???@9?
@?J?
rH??
A??????
?B?,??
???A?
%@??
????????A?
%@??
???@9h
@??D
??#A9?
6?/@??D
??O]??W\??_[??gZ??oY??{X???
_??????
? ??4???????R!?7??
????
??#A9?
??#@??H
??#A9
???@9?
7?#A9?
@?_D
??#A9h?
6?/@?[D
@?L?A?_
@?*E
_?*a@?_
?K?F?
*e@?_
??T?
+!@?
+%@?
+)@?
+-@?
+1@?
+5@?
+9@?
+=@?
+A@?
+E@?
+I@?
+M@?
+Q@?
+U@?
+Y@?
+]@?
+a@?
+e@?
_?I?B?? 
T?A!??
T???
*J?A?Iii8
???T_
?l??T
?_8_?
??T?
?k?A??
?iii8
_??#
?W?;??
@??#
?A??
@??c
?(???
???>??
A??G
?H'A?*
yi??
!@??
?!?A?"?
???A??
@?????
???>??
?A?xG
'A??
yi??
@?cG
@???_?
T?OH??WG??_F??gE??{D??C
_?+???*????B
@?PG
???@?
@?m?A?
@?n?A?
@?jE
??-@8?
??=@8?
??M@8?
??]@8?
??m@8?
??}@8?
???@8?
???@8?
???@8?
???@8?
???@8?
???@8?
???@8?
???@8?
??-A8?
??=A8?
??MA8?
??]A8?
??mA8?
??}A8?
???A8?
???A8?
???A8?
???A8?
???A8?
???A8?
???A8?
???A8?
?k?A?kil8?
?_8?
T???
@???A??
@??E
@??U
_??#
?V?;??
@??#
A???A??
@??_
???>??
A?.F
?('A?
yi? 
!@??
?!?A?"h
???A??
@?????
???>??
??&A??
yi?U
@??E
@???_?
T?OH??WG??_F??{D??+@??C
_?????????#A
@??E
?W?;??
@??#
?9GA?
?A??
@??c
?(???
???>??
DA??E
?H'A?*
yi??
1@??
?!?A?"?
???A??
@?????
???>??
?A??E
'A??
yi??
@??E
@???_?
T?OH??WG??_F??gE??{D??C
_?T???S????@
@?yE
???@?
@?m?A?
@?m?A?
@?jE
m!@??
m%@??
m)@??
m-@??
m1@??
m5@??
m9@??
m=@??
mA@??
mE@??
mI@??
mM@??
mQ@??
mU@??
mY@??
m]@??
ma@??
me@??
mi@??
mm@??
mq@??
mu@??
my@??
m}@??
???B???A??ik8??}??a
?_8?
T???
@???A??
@??E
@??Q
_??#
?V?;??
@??#
GA???A??
@??_
???>??
DA?9D
?('A?
yi? 
1@??
?!?A?"h
???A??
@?????
???>??
??&A??
yi?U
@???_?
T?OH??WG??_F??{D??+@??C
_?????????.?
@??C
?V?;??
?H @9
???A?
?A??
@??#
?????
???>??
?A??C
??&A??
@??C
@??C
?)ih??C
???C@9??A??
r*?A?J
9??A??
??C@9
?A??
T????h&C??
????Th
5@??
?????
@???_?
??+@??OG??WF??{D??
_?V????>
@?}C
??C@9?
@?6?
??{???
?Z?;??
?R??
@??C
A??C
@??? ?
???]?
*????
@???_?
??OE??WD??_C??gB??
@??{???#
? ??4???????R!?7??
????
???]??B
8c?O6h
@8???5H
_??#
???8??
????9??
????
?W?;??
??'<??#;??B
???}??
???>???
@???_?
*?OS??WR??_Q??{P??
_??=
??????
_??#
?[?;?h
?s?A??
@??O
?????
???>?
A?-B
??&A??
???A??#
@?????
???>?
?h&A??
yi??
@???
????@9?
?+?_8*?
?#??TH
???@9?
*?#@??
??)ih8?
9??@9?
@?+?A??
?{??
9???T?
T??@?(
?+?_8*?
?#??T?
!@??
??@??
????@9?
6?#@?'=
@???_?
T?OK??WJ??_I??gH??oG??{F??
_?.????<
???@9h
6?#@?
??{???
?Z?;??
?R??
?R???R*
A??C
@??? ?
???]??@
*????
@???_?
??OE??WD??_C??gB??
@??{???#
? ??4a??????R!?7??
????
???]??@
??{???
?Z?;??
?R??
@??C
A??C
@??? ?
???]?E@
*8???
@???_?
??OE??WD??_C??gB??
@??{???#
? ??4a??????R!?7??
????
???]?
??{???
?Z?;??
?R??
?R???R*
A??C
@??? ?
???]???
*????
@???_?
??OE??WD??_C??gB??
@??{???#
? ??4a??????R!?7??
????
???]?~?
?\?;?
?R??
8? ?R*
?R??
9???
A???
T???
?E?R_
????
@???
?R??
T???
|@??
@9??
@??>
???@??
*?????
@???^?
??K@??OO??WN??_M??gL??oK??{J??
????4a??????R!?7??
?a??
??4a??????R!?7??
?~??
?@??4a??????R!?7??
?P??
????4a??????R!?7??
?m??
@?s>
??????
8? ?RI
T?E?R
@8???5?
_??#
???8??
????9??
????
?V?;??
???>???=?\>
???=??C
@???_?
*?OS??WR??_Q??{P??
_?39
????
?\?;??
???A??
@??W=??
??????
???>?
A??=
??&A??
???(
yi??(
???A??
@??W=?????
???>?
?A??=
??&A??
???%
yi?t%
@???
@9??
@???
@9???
????T2
????4a??????R!?7??
????
??jx8???
????T
????4a??????R!?7??
????
??kB??
]8??]?
?+?_8*?
?#??T?
??)ih8?
]8??]?+?A??
????
9???T?'C??kB?h
?+?_8*?
?#??T
!@??
?a?_8??
9a??T?
!@??
^?U8
@???_?
T?OL??WK??_J??gI??oH??{G??C
_?\????7
^?58
?=\?;??
?R??
8? ?R*
?R??
9???
A??<
T???
A???
?=?<
?E?R?
????
A???
@???
?=?<
T???
@???
?=?<
|@??
@9??
@??;
???A??
*?????
@???_?
??OO??WN??_M??gL??oK??{J??
?@??4a??????R!?7??
?_??
??4a??????R!?7??
?~??
??4a??????R!?7??
?N??
????4a??????R!?7??
?m??
@?g;
??????
?X?;??
A??s
|@??
T?C^8
T?S^8
?A??
@???
?????
?h'A??
yi?w
@??:
@??s
!@???
????
*????
@???_?
T?OM??WL??_K??gJ??{H??K@???
_??????
????4a??????R!?7??
????
@??:
?V?;??
?H @9
???A?
?A??
@??#
?????
???>??
?A??:
??&A??
yi?u
@??:
@??C
?)ih??C
???C@9?
?A??
???A??
1?C@9?
r+!A?l
T????h&C??
????Th
5@??
*???
@???_?
??+@??OG??WF??{D??
_? ???~5
@?G:
??C@9?
??{???o
?Z?;??
?R??
@??C
%I?8_
A??C
@??? ?
???]??9
@???_?
??OE??WD??_C??gB??oA??{???#
????4a??????R!?7??
????
???]??9
?[?;?h
??FA??
?s?A??
@??O
?????
???>?
DA?u9
??&A??
yi??
???A??#
@?????
???>?
?A?\9
?h&A??
yi??
@???
????@9?
-@??
-@??
-@??
?+?_8*?
?#??TH
???@9?
*?#@??
??)ih8?
???@9?
@?L?A?_
?{??
-@??
????T??@?
1@??
?+?_?*?
?#??T?
????@9?
6?#@?r4
@???_?
T?OK??WJ??_I??gH??oG??{F??
???3
???@9h
6?#@?[4
?Z?;??
@???
?)?B??
???H
?B??
?(1@?
???|??
?~?`?~?x3
??{7??
??H1@??
?B??
?(1@?
@???_?
@??OG??WF??_E??gD??{B??
@??3
?D????#
??{???o
?Z?;??
?R??
?R???R*
%I?8_
A??C
@??? ?
???]??7
@???_?
??OE??WD??_C??gB??oA??{???#
????4a??????R!?7??
????
???]??7
??{???o
?Z?;??
?R??
@??C
%I?8_
A??C
@??? ?
???]?
*v???
@???_?
??OE??WD??_C??gB??oA??{???#
????4a??????R!?7??
????
???]??6
??{???o
?Z?;??
?R??
?R???R*
%I?8_
A??C
@??? ?
???]?u6
*????
@???_?
??OE??WD??_C??gB??oA??{???#
????4a??????R!?7??
????
???]?I6
?\?;?
8? ?R*
9???
A??6
T???
?E?R_
????
?Rg6
T???
|@??
@9??
?}?k4
@??5
???@??
????
???@??OZ??WY??_X??gW??oV??{U???
????4a??????R!?7??
?a??
??4a??????R!?7??
?~??
?@??4a??????R!?7??
?P??
????4a??????R!?7??
?m??
@?>5
??????
?H?;??
??FA??
???A??
@??W=??????
???>?
??&A??
???(
yi??(
???A??
@??W=?????
???>?
?A??4
??&A??
???%
yi?t%
@???
@9??
@???
-@??
-@??
-@??
?z????
?Z?7?|
@9???
????T?
????4???R?
????
??jx8???
????T
????4a??????R!?7??
????
??cA??
]8??]?
?+?_8*?
?#??T?
??)ih8?
???]?L?A?_
????
-@??
????T??@?
1@??
@??#C??
?+?_?*?
?#??T
?a?_8??
-@??
?a??T
@?`D
1@??
^??/
@???_?
T?OL??WK??_J??gI??oH??{G??C
@?U??
?O??
?z???.
^?k/
?=\?;??
8? ?R*
?R??
9???
A??3
T???
A???
?=?3
?E?R?
????
A???
@???
?=?3
T???
@???
?=?3
|@??
@9??
?}??1
???A??
*d????
??OZ??WY??_X??gW??oV??{U???
?@??4a??????R!?7??
?_??
??4a??????R!?7??
?~??
??4a??????R!?7??
?N??
????4a??????R!?7??
?m??
@??2
??????
?X?;??
A??s
|@??
T?C^8
T?S^8
??FA?
?A??
@??#
?????
DA?82
?h'A??
yi?w
@?22
@??s
1@??
*????
@???_?
T?OT??WS??_R??gQ??oP??{O??C
_??x???
????4a??????R!?7??
????
@??1
?H?;??
?A??
@??#
?h???
???>??
A??1
??'A?j
yi??
@??1
???A?
???A?
???????
*)%@? 
*)%@? 
yi??
7??A?
?(%@??
T??A?
???A?
???A?
???A?
@?(Yh?(
6??A?
?`??T
????????
@????4
???A??
???A?
@???_?
??OI??WH??_G??gF??oE??{D???
_?T??????
?w??
@??0
_??#
??S?;?I????
??I??h
@??d??G!
T?{A??
@???
_??+
??{???_
?@??
@9?OC??WB??
r)?A??_A?F
??{???#
?X?;??
?A??
@??#
?????
???>??
A?\0
?('A??
yi??
@?V0
*#???
?C?iU??
??$??I???)I???$??
}I?*?
?)?A?)
@???_?
T?OH??WG??_F??{D??+@??C
_??v??\+
@?%0
??{???_
*????
?C?iU??
??$??I???)I???$??
}I?*?
?)?A?)
??OC??WB??_A??{???#
_??#
?X?;??
?A??
@??#
?????
???>??
A??/
?('A??
yi??
@??/
*????
?C?iU??
?iU??IU??
}I?*?
?)?A?)
?R(?
@???_?
T?OH??WG??_F??{D??+@??C
_?mv???*
@??/
??{???_
*U???
?C?iU??
?iU??IU??
}I?*?
?)?A?)
?R(?
??OC??WB??_A??{???#
_??#
?W?;??
?A??
@??#
?????
???>??
A?</
'A??
yi??
@?6/
@???_?
T?OG??WF??_E??{D??
_??u??L*
??{???O
??OA??{???#
_??#
?Z?;??
?A??
@??#
A??.
?h'A?
??b.
yi?8.
@??.
Ti???)Y
+yhxJ
*????
?C?iU??
?iU??IU??
}I?*?
?)?A?)
?R(?
*Y???
?C?iU??
??$??I???)I???$??
}I?*?
?)?A?)
?i???h
?R)?
@???
@??s
?A?&
??????????????$??R
??H????I???d??>
?RI??r?
@???
??$????????????????
@?'!
??I?A?_
@???_?
T?OI??WH??_G??gF??{D??+@???
_??$
q???T??
????
*????h
????
????T
qL??T
????
+t???(
@?R-
??{???O
 ?@z?
??OA??{???#
_??#
??{???O
 ?@z?
??OA??{???#
_??#
??{???O
 ?@z?
??OA??{???#
_??#
??{???O
 ?@z?
??OA??{???#
_??#
??{???O
 ?@z?
??OA??{???#
_??#
??{???O
 ?@z?
??OA??{???#
_??#
??{???
???A?
???A?
@?(Yh?h
????T
@????????
???A?
???A?
??OC??WB??
@??{???#
?t??????????
??{???_
??I?A?_
???h
??OC??WB??_A??{???#
_??#
??{???O
 ?@z?
??OA??{???#
_??#
??{???O
 ?@z?
??OA??{???#
_??#
??{???O
??OA??{???#
_??#
??{???
???A?
???A?
@?????
?T???
@???A?
???A?
???A?
@?????
?T????
??OC??WB??
@??{???#
_??#
??{???g
???A?
@?????
?4???8
@?(Yh??
*?OD??WC??_B??gA??{???#
?A??
?))@? 
?))@? 
?(?A?
???A?
T(?A?
86???
*A??7(
@?(Yh???76?
?A??
????T)
????
Q4??????
Q???????
?(?A?
???A?
????
????H
?Rz??
?H?;??
?{GA?
?A??
@??#
?h???
???>??
DA?e*
??'A?j
??""
yi??!
@?_*
???A?
????????A?
*(5@?
*(5@?
?BG@?!
??A?
?(%@??
???A?
???<
???A?
1!??T?
7??A?
6??A?
?!??T???
T??A?
@?H??4
?????
???A?
????????A?
@???_?
??OI??WH??_G??gF??oE??{D???
_?'p???$
@?N)
_??#
?i???S?;?)1
@???_?
T?{C??#@??C
_?c$
??{???_
?@??
??OC?_
rJ?A??WB?J
???_A??
??{???#
?X?;??
??FA?
?A??
@??#
?????
???>??
DA??(
?('A??
yi??
@??(
?C?iU??
??$??I???)I???$??
}I?*?
?)?A?)
@???_?
T?OH??WG??_F??{D??+@??C
_??o???#
@??(
??{???_
*????
?C?iU??
??$??I???)I???$??
}I?*?
?)?A?)
??OC??WB??_A??{???#
_??#
?X?;??
??FA?
?A??
@??#
?????
???>??
DA?O(
?('A??
yi??
@?I(
*w???
?C?iU??
?iU??IU??
}I?*?
?)?A?)
?R(?
@???_?
T?OH??WG??_F??{D??+@??C
_??n??P#
??{???_
*;???
?C?iU??
?iU??IU??
}I?*?
?)?A?)
?R(?
??OC??WB??_A??{???#
_??#
?W?;??
??FA?
?A??
@??#
?????
???>??
DA??'
'A??
yi??
@??'
@???_?
T?OG??WF??_E??{D??
_?sn???"
@??'
??{???O
??OA??{???#
_??#
?Z?;??
?A??
@??#
DA?P'
?h'A?
???-
yi??-
@?J'
Ti???)
+yhxJ
*m???
?C?iU??
?iU??IU??
}I?*?
?)?A?)
?R(?
*????
?C?iU??
??$??I???)I???$??
}I?*?
?)?A?)
?h????
??<??
????<?
?@??
r)?A??
?h???
?h???
?h????
?=?3
?h???
@???
??I?A?_
@???_?
T?OK??WJ??_I??gH??{F??;@??
_??$
q???T??
????
*)???h
????
????T
qL??T
????
?l??
@??%
??{???O
 ?@z?
??OA??{???#
_??#
??{???O
 ?@z?
??OA??{???#
_??#
??{???O
 ?@z?
??OA??{???#
_??#
??{???O
 ?@z?
??OA??{???#
_??#
??{???O
 ?@z?
??OA??{???#
_??#
??{???O
 ?@z?
??OA??{???#
_??#
??{???
1???T7
???A?
1!??T?
?a??T
@?@??????
???A?
??T6
?????V
??OC??WB??
@??{???#
_??#
??{???_
??I?A?_
*????h
??OC??WB??_A??{???#
_??#
??{???O
 ?@z?
??OA??{???#
_??#
??{???O
 ?@z?
??OA??{???#
_??#
??{???O
??OA??{???#
_??#
??{???
?R??????A?
1???T7
????????
???A?
1a??T6
??????
??OC??WB??
@??{???#
?R???????
??{???g
???A?
??T8
?????X
?A??
?))@? 
?))@? 
???A?
1???T9
Qw???(
?A??
?@??T)
????
???A?
??T5
?????U
*?OD??WC??_B??gA??{???#
_??#
?H?;??
?A??
@??#
?H???
???>??
A??"
?h'A?J
yi??
@??"
3???h&C?!
????T
9???
????
?h&C?!
?h&C?!
Th&C??
?A??Th
@???_?
??OJ??WI??_H??gG??oF??{E???
????
i??a
@?*"
?U?;??
?R?"
T????h&C??
?`??T
9???
@???_?
??OI??WH??{G???
?U?;??
T?OC??{A??
?H?;??
?ZGA?
?A??
@??#
?H???
???>??
DA??!
?h'A?J
yi?:
@??!
3???h&C?!
?!??Th
*???
?A??T
?h&C?!
?h&C?!
Th&C??
?!??Th
@???_?
??OJ??WI??_H??gG??oF??{E???
??T?
????
?g??G
?T?;??#
@??B
T????h&C??
????Th
*???
@???_?
???@??O]??W\??{Z???
?W?;??
@???
?R??
@???
?B?? 
@???_?
T?OL??WK??_J??{I??C
_?@???
47?b!
??????
_?_$
_?_$
_?_$
_?_$
_?_$
?I??R
_?_$
_?_$
?@`?R
??r?
_?_$
?@`?R
??r?
_?_$
_?_$
_?_$
_?_$
_?_$
_?_$
?I??R
_?_$
_?_$
?@`?R
??r?
_?_$
?@`?R
??r?
_?_$
_?_$
_?_$
_?_$
_?_$
_??#
??{???
?R? 
@??{???#
_?G???_$
_?_$
?@`?R
??r?
_?_$
?@`?R
??r?
_?_$
_?_$
_?_$
_?_$
_?_$
_??#
??{???
?R? 
@??{???#
???_$
_?_$
?@`?R
??r?
_?_$
?@`?R
??r?
_?_$
@@9?
_?_$
D@9?
_?_$
x@??
_?_$
|@??
_?_$
?@??
_?_$
@@9?
_?_$
D@9?
_?_$
x@??
_?_$
|@??
_?_$
?@??
_?_$
_?_$
_?_$
x@??
_?_$
|@??
_?_$
?@??
_?_$
_?_$
_?_$
x@??
_?_$
|@??
_?_$
?@??
_??#
?Y?;??
?A??
?A??/
@???
??'A?
yi?8
@?h?
6)????
?R)?7?(
@?Hs
@?")
!@??
????B?
??s@9i
?Chc8?
k???T?
k@??T?#W8?
k???T?3W8?
k@??T?CW8?
k???T?SW8?
k@??T?cW8?
k???T?sW8?
k@??T??W8?
k???T??W8?
?????
A????#
??#@?u
???A?
%@??
T?#@??
???A?
%@??
@??#@??
??OY??WX??_W??gV??oU??{T???
??s@9)??5???
?????U??????
ae??@???
?????
?A??
?????_$
_??#
??{???o
?J?;??+
??;@?3A
S?/F??G
@??O
@???
?)?A??
?;@??
?h?A?
???A?
%@??
%@??
@?????
?V????
qh??TK???k?
jih8)
?h?A?
???A?
%@??
%@??
@?????
?V????
@?(Yh??
07??C9??@?
4?CD9
T?C@??
1????@?)?A?
@??G@?
T?;@?
!@?4
?<1???
?)?A?
???~?
A???
??;@??
??3@??G
?a??T
??q??
T?oD9?
??@?(
T??C9?
??{@??7@?
??#C9?k@???B9?_@?*
r-?A??
?A??
? ??Tm
?C@?
T?C@??
1????@?)?A?
??C9?
??{@??7@?
??Ik8
T?w@?
@??yn??
?!??T?
???R87
@?(Yh?
@9?c
?h?A?
???A?
%@??
????
%@??
@?????
?V????
??????
?????7
@?(Yh?(?
?a??T
*???
?~??
?A??
??cB9K
??S@???A??
T?W@??
??il8/kl8?
?A??T?
??w@?
r?7@?
???N?9
???C9?7@?
?A?i
?h?A?
???A?
%@??
%@??
@?????
?V????
????T
?????
?O@??
??N???C9?7@?
?A?i
????T?
???#C9*
?o@?_
?A??
????B9
?c@?
??T?
?A??
???~?
A???
???@??/@?
q???T?
?h?A?
???A?
%@??
%@??
@?????
?V???[.
???SD9
 k?,
????@?
T???
??T?
?h?A?
???A?
%@??
%@??
@?????
?V????&
??@%87
@?(Yh??$06?
@??G@?
T?;@?
!@?4
?;1???
?)?A?
??;@??
?A??
@???@?
?A??T
????@?
???#C9*
?o@?_
@?))@??
@?)%@??
????B9?c@??
?A?_
????B9
?_@?
????B9
?_@?
??????
9???
???#C9*
?k@?)}
??????
@?T}@?
???A?
%@??
%@??
@?????
?V????
?a??T
?????
?C@??
T??C95
?R??@?*?A??
?,?_?+?
?#??T?/P???
???C9?
@?-?A??
?)???
@9,??4??
q???Tm
k???T
??@???
?#@??
*?C@?(
??cB9h
7??B9?
7?#C9?
7??C9(
7??C9h
?W@?
???B9??
6?c@??
??#C9h?
6?o@??
???C9(?
6?{@??
???C9??
6??@??
???@?
???+@?
??OE??WD??_C??gB??oA??{???#
?7???
?A???
??cB9?
7??B9?
7?#C9
7??C9H
7??C9?
7?C@??
?W@??
???B9??
6?c@??
??#C9H?
6?o@??
???C9
6?{@??
???C9??
6??@??
??C@?`
???@?
??????#
??{???O
?!?A?B?A??
?Y?;??
?A??
?A??/
@???
?????
?h'A??
yi??
@?H?
y?#A9?
??#A9(
????B?I
?a??T?
??#@?u
???A?
%@??
T?#@??
???A?
%@??
@??#@??
@???_?
??OS??WR??_Q??gP??oO??{N??
?t??????????
?_??Y
A????
?1????#
?Z?;??
??3@?8
???A?
?A??
?????
???A?
?A??
?????
?A??
'A??
yi??
!@??
???7@?
@???_?
T?OH??WG??_F??gE??oD??{C??C
_?P_???
?A?h
?,?_?+?
?#??T
k?A?
?J????
@9+??4
q???T,
k???T
_??#
??{???o
?Y?;??
?A??
?A??3
@??#
??'A?
yi??
@?hC
6)????
?R)?7?(
@?H?
@?")
1@???
???_C?
???@9i
@?c?B??
?Chc8
@???@??
k???T??@??
k ??T??@??
k???T??@??
k ??T??@??
k???T??@??
k ??T??@??
k???T??@??
k ??T??@??
k???T??@??
?????
!????C
??'@??
???@9???5???
T?'@?
???A?
%@??
@??'@?d
??#@?
??OE??WD??_C??gB??oA??{???#
?R?'
?????
7???
 ^?? ???
]???h
?A??
??#@?
?K????#
??{???o
?J?;??'
??+F??C
??;@??
~??C
@??S
~???
?)?A??
??@??7@?
???A?
%@??
q???TK???k?
jih8)
???A?
%@??
6??@?
T??@?B
??C9?{@?
T?;@??
1???/@?)?A?
?7@??
!@??
?<1??i
?)?A?
??7@?j
A???@?*
???~?h
???~?
A??/
?A??T
??h??
??+@?
T?/D9?
?C@?(
T?CC9?s@??3@?
???B9?c@???B9?W@?*
r-?A??
?A??
?`??Tm
4?;@??
1???/@?)?A?
?CC9?s@??3@?
?kIj8
T?o@?_
???3@??
6?CC9s
???M?
?A??
???3@??
?????
???X
???A?
%@??
5}??
??`?
?a??T
*???
?`??
?A??
?CC9?s@?
?3@?_
q?#B9?K@?k
???A??
r??B?
?O@??
???~??
??il?pil??
kA??T?
?A??T?o@?_
q?3@?
??CC9s
???M?
???3@?)
???A?
%@??
????T
?????
?G@???O6?CC9??M?
???3@?)
????T?
????B9*
?g@?_
????B9
?[@?
??T?
?A??
???~?
A??/
???@?
qK??T?
??????A?
%@??
????@?
T]??
q-??T?
??????A?
%@??
???'
6??@?
T?7@??
!@??
?;1??i
?)?A?
???@?@
?V??????
???@?
??7@?k
?j?~?)
?A??
@???@?
????@?(
???@??
?A???
????T
????@?
ql??T???
?v???N??
????B9*
?g@?_
@?))@??
@?)%@??
????B9?[@??
?A?_
????B9
?W@?
????B9
?W@?
??+@???
?(????+
9???
????B9*
?c@?)}
??+@??????+
????
?+@??
@?T}@?
??????A?
%@??
????T
?????
??????
T??C95
?R?{@?*?A??
?,?_?+?
?#??T?/O???
???C9?
@?-?A??
?)???
@9,??4??
q???Tm
k???T
?R?#B9?
@???
??#B9?
??#B9h
6?O@??
???B9(
7??B9h
7?CC9?
7??C9?
?[@?u
???B9??
6?g@?q
??CC9??
6?s@?m
???C9h?
??/@?
???'@?
??OE??WD??_C??gB??oA??{???#
??~??
?A??/
??#B9h
7??B9?
7??B9?
7?CC9(
7??C9h
?O@?+
???B9??
6?[@?'
???B9h?
6?g@?#
??CC9(?
6?s@?
???C9??
??/@?
?s~???#
??{???o
?Y?;??
?A??
??FA?
?A??+
@??#
?????
DA?$
?h'A??
yi??
@?HC
-@??
-@??
???#B?I
?c??T?
???A?
%@??
@???_?
??OE??WD??_C??gB??oA??{???#
?????
7???
?X???
?}???
??}???#
?Z?;??
??3@?8
???A?
?A??
?????
???A?
?A??
?????
?A??
'A??
yi??
!@??
???7@?
@???_?
T?OH??WG??_F??gE??oD??{C??C
_??W??3
??{???o
?\?;???
????C
??k@?S
|@??
|@??#
?A??{
??g@??#
?????
??&A??
yi??
@??k@?
!@?"
??k@?
??w???
T??A9+
??C@??CB9?O@?
??I?A?_
??A9?C@??CB9?O@?
??I?A?_
????T
C9??
F??#@??
??O@??Y???
???A9h
6?G@??
??CB9?+@?h
6?S@??
???B9h
6?_@??
??g@?3
??OE??WD??_C??gB??oA??{???#
_??V???
? ??4
??????R!?7??
?/??
???A9?
6?G@??
??CB9h
6?S@??
???B9H
??+@?
???A9??
7?CB9??
7??B9H
6?_@??
???A9??
6???
??g@??
??+@??
??+@?h????+@?X
???9???
????
????
?S?;?h
@???
????
???>??
*??=?@
@???=?
@???_?
T?OP??{O??C
?Z?;??
??3@?X
???A?
?A??
?????
???A?
?A??
?????
?A??
'A??
yi?X
-@??
)@??
???7@?
@???_?
T?OH??WG??_F??gE??oD??{C??C
_??U??G
??oH?:????
???@??
???@??
???A9??
???A9?
??3@??
???>?
??^?:???Z?
T?kt8
qh??T?
Jkh8)
????
T??_?
@?*yj??
?#??T?
???]??
?j?_8
T?+A)?
?_8?
*???T
???_?
9???
????]?)?O6
????
???~??
????
??????h
9???
T??_?
?@??T
???^?
????TI
?+?_8*?
?#??Te??
??]??
???_?
9H??T?
????Th
m?_8
??T_
k???T?
@?l?A?
????T?
*???
?_A)???4???
???]?
??OK??WJ??_I??gH??oG??{F??
_??#
?[?;??
?A???
???W???8?h???
??&A?j
yi?W
@9?#
@??g??i?A?
T??A9?
??;@??
B9?G@?
??I?A?_
??A9?;@??
B9?G@?
??I?A?_
???CW8?
E??'@??
*2V???
???A9?#@??
7?cB9h
6?W@??
???W?*
??OY??WX??_W??gV??oU??{T???
_???@??
B9(?
6?K@??
??cB9??
7???
?S??E
???A9?
6??@??
6?K@??
??cB9h
???A9??
B9??
7?cB9H
6?W@??
???A9??
6???
???W??
??{???o
?\?;???
????c
??o@??
|@???~?y
|@??C
??FA?
?A??
??k@???
?????
DA??
?H'A??
yi?Z
@??o@?
1@?"
??o@?
??G@??cB9?S@?
??I?A?_
B9?G@??cB9?S@?
??I?A?_
??#Y)?
???F??#@??
*??????D??
7?cB9?
7??B9h
6?c@??
??k@?(
??OE??WD??_C??gB??oA??{???#
_??K@??
??cB9h?
6?W@??
???B9(?
7???
?R??`
????4
??????R!?7??
?,??
6?K@??
??cB9h
6?W@??
???B9H
??+@?(
B9??
7?cB9??
7??B9H
6?c@??
B9??
6???
??k@??
??'@??
??+@??
??'@?H
??+@?h????+@?D
?Z?;??
??3@?X
???A?
?A??
?????
???A?
?A??
?????
?A??
'A??
yi?X
-@??
)@??
???7@?
@???_?
T?OH??WG??_F??gE??oD??{C??C
R??_
??oH?.????
??k@??
???@??
???@???
??s@??
??3@?j
T?it8
qh??T???
?ih8)
?(-@?
@?.????
_???
???]?(
????\?
?O6??????]?
@?;?~??
^?.????
@???
????
??????h
@?(E
????
????T?
???_??
y)?)
k???T
NKu}?Z
????T_
????T?
r??_?
@?.?????
.????
r??_??
?Zl?_??
k???TVE
@???A??
????T?
*???
??'~??
? ??T
????T)
?+?_?*?
?#??T
T)?~??
???\?
??OL??WK??_J??gI??oH??{G??C
_??#
??{???o
?[?;??
?sFA?
?A??k
??[@??#
?h???
DA??
??&A?j
yi??
@?(-@??
@??_??i?A?
T??A9?
??7@???A9?C@?
??I?A?_
??A9?7@???A9?C@?
??I?A?_
?~?#
???#U)?
???D??#@??
*?????
???A9?
7??A9(
7?CB9h
6?S@??
??[@?=
??OE??WD??_C??gB??oA??{???#
_??;@??
???A9(?
6?G@??
??CB9??
7???
?O??X
???A9?
6?;@??
???A9?
6?G@??
??CB9h
???A9??
7??A9??
7?CB9H
6?S@??
???A9??
6???
??[@?
_?_$
_?_$
_?_$
_?_$
??{???
@??{???#
??{???
@??{???#
??{???
@??{???#
??{???
@??{???#
??{???
?J?=??
9H`?R
?!@0?
?)???!?0?)?!?
?A??`
?!@1?
???1?x
?!@2?
????R!?2?
?A??|
?)???a
?!@3?
?A? !C??|
?!@4?
?!?4?
?!?4?
?!@5?
?!?5?
?!?5?
?!@6?
?!?6?
?!?6?
?!?7?
B?(C
???8??~
?!@9?
??OD??WC??_B??
@??{???#
????4
??????R!?7??
??????R!?7??
????
? ??4
??????R!?7??
????
?8?U
?1?E
?h?D9h
6`?@?
?V?;??
??"B?)?A???
?????
??&??)
?*?C?_
yw?`
y7??
@???_?
T?OF??WE??{C??#@???
?V?;??
??&B?)?A???
?????
$B??
??&??)
?*?C?_
yw?`
y7??
@???_?
T?OF??WE??{C??#@???
?V?;??
A?)?A???
?????
??&??)
?*?C?_
yw?`
y7??
@???_?
T?OF??WE??{C??#@???
?V?;??
??FA?)?A???
?????
DA?:
??&??)
?*?C?_
yw?`
y7??
@???_?
T?OF??WE??{C??#@???
?V?;??
A?)?A???
?????
??&??)
?*?C?_
yw?`
y7??
@???_?
T?OF??WE??{C??#@???
?V?;??
??*B?)?A???
?????
(B??
??&??)
?*?C?_
yw?`
y7??
@???_?
T?OF??WE??{C??#@???
?V?;??
??.B?)?A???
?????
,B?\
??&??)
?*?C?_
yw?`
y7??
@???_?
T?OF??WE??{C??#@???
?V?;??
??2B?)?A???
?????
??&??)
?*?C?_
yw?`
y7??
@???_?
T?OF??WE??{C??#@???
?V?;??
???A?)?A???
?????
?A??
??&??)
?*?C?_
yw?`
y7??
@???_?
T?OF??WE??{C??#@???
_???
?V?;??
???A?)?A???
?????
?A?~
??&??)
?*?C?_
yw?`
y7??
@???_?
T?OF??WE??{C??#@???
_???
?V?;??
??>A?)?A???
?????
<A?4
??&??)
?*?C?_
yw?`
y7??
@???_?
T?OF??WE??{C??#@???
_?G?
?V?;??
??JA?)?A???
?????
HA??
??&??)
?*?C?_
yw?`
y7??
@???_?
T?OF??WE??{C??#@???
_???
?V?;??
??RA?)?A???
?????
PA??
??&??)
?*?C?_
yw?`
y7??
@???_?
T?OF??WE??{C??#@???
_???
?V?;??
??ZA?)?A???
?????
XA?V
??&??)
?*?C?_
yw?`
y7??
@???_?
T?OF??WE??{C??#@???
_?i?
?V?;??
???A?)?A???
?????
??&??)
?*?C?_
yw?`
y7??
@???_?
T?OF??WE??{C??#@???
?V?;??
???A?)?A???
?????
?A??
??&??)
?*?C?_
yw?`
y7??
@???_?
T?OF??WE??{C??#@???
_???
?V?;??
???A?)?A???
?????
?A?x
??&??)
?*?C?_
yw?`
y7??
@???_?
T?OF??WE??{C??#@???
_???
?V?;??
???A?)?A???
?????
?A?.
??&??)
?*?C?_
yw?`
y7??
@???_?
T?OF??WE??{C??#@???
_?A?
?V?;??
??6B?)?A???
?????
4B??
??&??)
?*?C?_
yw?`
y7??
@???_?
T?OF??WE??{C??#@???
_???
?V?;??
??:B?)?A???
?????
8B??
??&??)
?*?C?_
yw?`
y7??
@???_?
T?OF??WE??{C??#@???
_???
?V?;??
??>B?)?A???
?????
<B?P
??&??)
?*?C?_
yw?`
y7??
@???_?
T?OF??WE??{C??#@???
_?c?
?V?;??
??BB?)?A???
?????
??&??)
?*?C?_
yw?`
y7??
@???_?
T?OF??WE??{C??#@???
?V?;??
??FB?)?A???
?????
DB??
??&??)
?*?C?_
yw?`
y7??
@???_?
T?OF??WE??{C??#@???
_???
?V?;??
??JB?)?A???
?????
HB?r
??&??)
?*?C?_
yw?`
y7??
@???_?
T?OF??WE??{C??#@???
_???
?V?;??
??NB?)?A???
?????
LB?(
??&??)
?*?C?_
yw?`
y7??
@???_?
T?OF??WE??{C??#@???
_?;?
?V?;??
??RB?)?A???
?????
PB???
??&??)
?*?C?_
yw?`
y7??
@???_?
T?OF??WE??{C??#@???
_???
?V?;??
??VB?)?A???
?????
TB???
??&??)
?*?C?_
yw?`
y7??
@???_?
T?OF??WE??{C??#@???
_???
?V?;??
??ZB?)?A???
?????
XB?J?
??&??)
?*?C?_
yw?`
y7??
@???_?
T?OF??WE??{C??#@???
_?]?
??{???
?)?=??
?i"A?
T yv?`?????
?i"A????
?R??
?R??
?R??
?R??
?R??
?R??
?h?D9?
?i?@?
?R??
?R??
?R??
????RJ
?i?D9?
?JmB?
yh?@??
?R??
???J
?i?D9?
?JqB?
!C??
rh?@?
??JA
?R}?
?Rt?
?Rk?
?Rb?
??RY?
??RC?
?R-?
?R ?
??OD??WC??_B??
@??{???#
??4v
?R??9??
?'???i
????
?i"A?
??B??T yv?`?????
?i"A????
6`?@?U?
??i???#
??{???O
A??OA??{???#
??4s
?Rs?9??
?????I
????
?V?;??
??"B?)?A???
?????
 B???
??&??)
?*?C?_
yw?`
y7??
@???_?
T?OF??WE??{C??#@???
_?R?
?V?;??
??&B?)?A???
?????
$B???
??&??)
?*?C?_
yw?`
y7??
@???_?
T?OF??WE??{C??#@???
?V?;??
A?)?A???
?????
A???
??&??)
?*?C?_
yw?`
y7??
@???_?
T?OF??WE??{C??#@???
_???
?V?;??
??FA?)?A???
?????
DA?a?
??&??)
?*?C?_
yw?`
y7??
@???_?
T?OF??WE??{C??#@???
_?t?
?V?;??
A?)?A???
?????
??&??)
?*?C?_
yw?`
y7??
@???_?
T?OF??WE??{C??#@???
_?*?
?V?;??
??*B?)?A???
?????
(B???
??&??)
?*?C?_
yw?`
y7??
@???_?
T?OF??WE??{C??#@???
_???
?V?;??
??.B?)?A???
?????
,B???
??&??)
?*?C?_
yw?`
y7??
@???_?
T?OF??WE??{C??#@???
_???
?V?;??
??2B?)?A???
?????
0B?9?
??&??)
?*?C?_
yw?`
y7??
@???_?
T?OF??WE??{C??#@???
_?L?
?V?;??
???A?)?A???
?????
?A???
??&??)
?*?C?_
yw?`
y7??
@???_?
T?OF??WE??{C??#@???
?V?;??
???A?)?A???
?????
?A???
??&??)
?*?C?_
yw?`
y7??
@???_?
T?OF??WE??{C??#@???
_???
?V?;??
???A?)?A???
?????
?A?[?
??&??)
?*?C?_
yw?`
y7??
@???_?
T?OF??WE??{C??#@???
_?n?
??{???
?)?B?
??<)A
??<???<
??X?
??OB??
@??{???#
_?h?A9?
7h"A9?
7h?@9(
@???
?`:@???
?h"A9h?
6`.@???
?h?@9(?
6`"@???
@9??
7???
?V?;??
???A?)?A???
?????
?A???
??&??)
?*?C?_
yw?`
y7??
@???_?
T?OF??WE??{C??#@???
_???
??{???
?)?B?
??<)A
??<???<
????
??OB??
@??{???#
_?h?A9?
7h"A9?
7h?@9(
@?I?
?`:@?C?
?h"A9h?
6`.@???
?h?@9(?
6`"@?;?
@9??
7???
?V?;??
???A?)?A???
?????
?A?U?
??&??)
?*?C?_
yw?`
y7??
@???_?
T?OF??WE??{C??#@???
_?h?
??{???
?)?B?
??<)A
??<???<
??Z?
??OB??
@??{???#
_?h?A9?
7h"A9?
7h?@9(
@???
?`:@???
?h"A9h?
6`.@???
?h?@9(?
6`"@???
@9??
7???
?V?;??
???A?)?A???
?????
?A???
??&??)
?*?C?_
yw?`
y7??
@???_?
T?OF??WE??{C??#@???
_???
??{???
?)?B?
??<)A
??<???<
????
??OB??
@??{???#
_?h?A9?
7h"A9?
7h?@9(
@?C?
?`:@?=?
?h"A9h?
6`.@?9?
?h?@9(?
6`"@?5?
@9??
7???
?V?;??
??FB?)?A???
?????
DB?O?
??&??)
?*?C?_
yw?`
y7??
@???_?
T?OF??WE??{C??#@???
_?b?
?V?;??
??JB?)?A???
?????
??&??)
?*?C?_
yw?`
y7??
@???_?
T?OF??WE??{C??#@???
?V?;??
??NB?)?A???
?????
LB???
??&??)
?*?C?_
yw?`
y7??
@???_?
T?OF??WE??{C??#@???
_???
?V?;??
??RB?)?A???
?????
PB?q?
??&??)
?*?C?_
yw?`
y7??
@???_?
T?OF??WE??{C??#@???
_???
?V?;??
??VB?)?A???
?????
TB?'?
??&??)
?*?C?_
yw?`
y7??
@???_?
T?OF??WE??{C??#@???
_?:?
?V?;??
??ZB?)?A???
?????
XB???
??&??)
?*?C?_
yw?`
y7??
@???_?
T?OF??WE??{C??#@???
_???
??{???
?* A?
??)?=??
?}??
?R`?
?i"A?
T yt?`?????
?i"A????
?OC??WB??
@??{???#
6`?@?*?
??{???
??)?=??
9H@?R
?i"A?
T yw?`???+?
?i"A????
?R*?
?????
?R!?
?????5
?3???
?t???
?????
?R??
?????
?R??
?.???
?R??
?n????
?R??
??????
?B???
?R??
????
?????
?R??
??????
?6???
?R??
??????
?????u
?R??
????R?
??)mB?
?~???
?R??
????
!C?(
??????
??R??
?????
??Rp?
?%???
?RZ?
?b???
?RM?
??????
?R??
?????
?R5?
????OD??WC??_B??
@??{???#
?i"A?
??B??T yu?`?????
?i"A????
?h?D9h
6`?@???
??`???#
??{???
??)?=??
9H@?R?
?i"A?
T yy?`?????
?i"A????
??OD??WC??_B??
@??{???#
?i"A?
??B??T yu?`???.?
?i"A????
?h?D9h
6`?@???
?8`???#
?V?;??
??"B?)?A???
?????
 B???
?h&A??
yw?s
??&??)
?*?C?_
yw?`
y7??
@???_?
T?OF??WE??{C??#@???
_??:??
?V?;??
??&B?)?A???
?????
$B???
?h&A??
yw?s
??&??)
?*?C?_
yw?`
y7??
@???_?
T?OF??WE??{C??#@???
_?T:????
?V?;??
A?)?A???
?????
A?V?
?h&A??
yw?s
??&??)
?*?C?_
yw?`
y7??
@???_?
T?OF??WE??{C??#@???
:??b?
?V?;??
??FA?)?A???
?????
?h&A??
yw?s
??&??)
?*?C?_
yw?`
y7??
@???_?
T?OF??WE??{C??#@???
_??9??
?V?;??
A?)?A???
?????
A???
?h&A??
yw?s
??&??)
?*?C?_
yw?`
y7??
@???_?
T?OF??WE??{C??#@???
_?d9????
?V?;??
??.B?)?A???
?????
,B?f?
?h&A??
yw?s
??&??)
?*?C?_
yw?`
y7??
@???_?
T?OF??WE??{C??#@???
9??r?
?V?;??
??2B?)?A???
?????
?h&A??
yw?s
??&??)
?*?C?_
yw?`
y7??
@???_?
T?OF??WE??{C??#@???
_??8??"?
?V?;??
??*B?)?A???
?????
(B???
?h&A??
yw?s
??&??)
?*?C?_
yw?`
y7??
@???_?
T?OF??WE??{C??#@???
_?t8????
?V?;??
???A?)?A???
?????
?A?v?
?h&A??
yw?s
??&??)
?*?C?_
yw?`
y7??
@???_?
T?OF??WE??{C??#@???
_?$8????
?V?;??
???A?)?A???
?????
?A?&?
?h&A??
yw?s
??&??)
?*?C?_
yw?`
y7??
@???_?
T?OF??WE??{C??#@???
_??7??2?
?V?;??
???A?)?A???
?????
?A???
?h&A??
yw?s
??&??)
?*?C?_
yw?`
y7??
@???_?
T?OF??WE??{C??#@???
_??7????
?V?;??
???A?)?A???
?????
?A???
?h&A??
yw?s
??&??)
?*?C?_
yw?`
y7??
@???_?
T?OF??WE??{C??#@???
_?47????
?V?;??
??6B?)?A???
?????
4B?6?
?h&A??
yw?s
??&??)
?*?C?_
yw?`
y7??
@???_?
T?OF??WE??{C??#@???
_??6??B?
?V?;??
??:B?)?A???
?????
8B???
?h&A??
yw?s
??&??)
?*?C?_
yw?`
y7??
@???_?
T?OF??WE??{C??#@???
_??6????
?V?;??
??>B?)?A???
?????
<B???
?h&A??
yw?s
??&??)
?*?C?_
yw?`
y7??
@???_?
T?OF??WE??{C??#@???
_?D6????
?V?;??
??BB?)?A???
?????
@B?F?
?h&A??
yw?s
??&??)
?*?C?_
yw?`
y7??
@???_?
T?OF??WE??{C??#@???
_??5??R?
?V?;??
???A?)?A???
?????
?A???
?h&A??
yw?s
??&??)
?*?C?_
yw?`
y7??
@???_?
T?OF??WE??{C??#@???
_??5??
?V?;??
???A?)?A???
?????
?A???
?h&A??
yw?s
??&??)
?*?C?_
yw?`
y7??
@???_?
T?OF??WE??{C??#@???
_?T5????
?V?;??
??>A?)?A???
?????
<A?V?
?h&A??
yw?s
??&??)
?*?C?_
yw?`
y7??
@???_?
T?OF??WE??{C??#@???
5??b?
?V?;??
??JA?)?A???
?????
?h&A??
yw?s
??&??)
?*?C?_
yw?`
y7??
@???_?
T?OF??WE??{C??#@???
_??4??
?V?;??
??RA?)?A???
?????
PA???
?h&A??
yw?s
??&??)
?*?C?_
yw?`
y7??
@???_?
T?OF??WE??{C??#@???
_?d4????
?V?;??
??ZA?)?A???
?????
XA?f?
?h&A??
yw?s
??&??)
?*?C?_
yw?`
y7??
@???_?
T?OF??WE??{C??#@???
4??r?
?V?;??
??FB?)?A???
?????
?h&A??
yw?s
??&??)
?*?C?_
yw?`
y7??
@???_?
T?OF??WE??{C??#@???
_??3??"?
?V?;??
??JB?)?A???
?????
HB???
?h&A??
yw?s
??&??)
?*?C?_
yw?`
y7??
@???_?
T?OF??WE??{C??#@???
_?t3????
?V?;??
??NB?)?A???
?????
LB?v?
?h&A??
yw?s
??&??)
?*?C?_
yw?`
y7??
@???_?
T?OF??WE??{C??#@???
_?$3????
?V?;??
??RB?)?A???
?????
PB?&?
?h&A??
yw?s
??&??)
?*?C?_
yw?`
y7??
@???_?
T?OF??WE??{C??#@???
_??2??2?
?V?;??
??VB?)?A???
?????
TB???
?h&A??
yw?s
??&??)
?*?C?_
yw?`
y7??
@???_?
T?OF??WE??{C??#@???
_??2????
?V?;??
??ZB?)?A???
?????
XB???
?h&A??
yw?s
??&??)
?*?C?_
yw?`
y7??
@???_?
T?OF??WE??{C??#@???
_?42????
??{???
?* A??
?)?=??
?Rh???
?}??
?R`?
?H@?R?
??"A?
@?@yx?@???"?
??"A????
?h&A?)
?*?C?_
yv?`
y6?u
??OD??WC??_B??
@??{???#
?h?D9h
6`?@???
??{???W
??&??)
?*?C?_
yt?`
y4??OB??WA??{???#
??{???O
?=?h
xt?h????
?`&A????
?h?D9?
6`?@?I?
??OA??{???#
??{???
??????
@??{???#
??{???
$A?)
ya??
??{???#
_?81???#
??{???
?Rs?9??
????? 
@??{???#
_??#
??{???O
A?s"
??OA??{???#
?`??43
?Rs?9??
?}???)
????
??{???
6`*A??
@??{???#
??4????(
????
??{???
%A?`
@??{???#
????4????)
????
V??_$
@???
??{???O
@???
??OA??{???#
_??#
?Y?;?(
@???
(?R?
?|??
??j68?
?z????
@?X?
@???_?
T?OF??WE??_D??{B??
@???
_?????
?'?R?
@?>?
??{???
(?R?
?I????
??OB??
@??{???#
?[?;?h
@???
(?R?
@???
?|??
??k88?
*?????
@???
@???_?
T?OG??WF??_E??gD??{B??
_?????
?'???
@???
??{???
(?R?
*?????
??OC??WB??
@??{???#
??{???
(?R?
????
??OC??WB??
@??{???#
??{???
(?R?
?[???
??OC??WB??
@??{???#
?V?;??
?)??
??&A??
@???
??&A???
r)?A?)
T?????
?R??
@?.?
4?&A?
?R??
@???_?
T?OE??WD??{B??
@???
?`??4????)
????
@???
UT???
?T?;??
?)?A???
@??'
?(???
??&A?j
@???_?
T?OE??{C??#@???
_?4?
?T?;??
?)?A???
@???_??
T?OD?
??{C??C
?T?;??
?)?A???
@??'
?(???
??&A?j
yi?`
@???_?
T?OE??{C??#@???
_??.????
??{???O
?@?j?A?
??????
?R??
?@?j?A?-?D9
r.?@?B
????A??
?@?.?
?)?@?
?!??T
?R?OA??{???#
_??S???#
??{???
@??{???#
??{???
?R!?B???
@??{???#
_??#
?U?;??
?B??
????R?
@???_?
T?OF??{D??+@???
_??#
??????#
?Bx ??
???@9?
@???
??#@9?
@???
??{???O
?R??
?!?A?B?A???
?U?;?J
?B??
?????R?
@???_?
T?OD??{B??
@??C
_??????
x ??
???????
??{???O
??OA??{???#
??R???#
??{???O
??OA??{???#
??R???#
?[?;?W
@??B
@???
?|??
@???
@??#
9??@9?
@???
??#@9
@???
@???_??
@??Z
T?OI??WH??_G??gF??{D??+@???
_??B
?|??
????T???
???@9?
@???
?Z?;??
?|??
@???
?|??
@9?j58i
@?h?@?
r)?A?(
@?u?
@???_?
T?OF??WE??_D??gC??{B???
@?[?
@9h?
@9??
@?S?
?U?;??
?B??
????R?
@???_?
T?OF??{D??+@???
_??#
??????#
?_?????
???@9?
??#@9?
?U?;?J
?B??
?????R?
@???_?
T?OD??{B??
@??C
_??????
?"???X?
@???
??{???O
??OA??{???#
?"Q???#
??{???O
??OA??{???#
Q???#
?Y?;?(
A???
~???
[?B?h
?~???~???
@???
TB?~??
T?~A??#
~??#
T??~??
???@9?
@???
??#@9
@???_??
@??Z
T?OI??WH??_G??gF??oE??{D???
_???B?
?~?@?~???
??T???
???@9?
@?,?
?X?;??
:?B?H
?~?`?~?Y?
@???
T"?~??
?~???
???|?
?~? ?~?1?
@9?z5?i
@?h?@??
r)?A?(
@???
@???_?
T?OG??WF??_E??gD??{B??
P??h
@???
@9h?
@9??
@???
??{???
@??{???#
_?????
_?_$
?????
?!??
_?_$
T????
@???
q)??T?
????
_?_$
T????
@???
qh??T
yi??
??T?
_?_$
T????
@???
yi??
??T?
_??#
??{???O
*?OA??{???#
?@??4???????R!?7??
????
??{???_
??????
???7?
@???
qh??T???
????4???R?
????
??OC??WB??_A??{???#
??{???O
*?OA??{???#
?@??4???????R!?7??
????
??{???_
??????
???7?
@???
qh??T???
????4???R?
????
??OC??WB??_A??{???#
_?_$
T????????
????????
o ??=m
?Ay?=?M?=?
??q?=??
?N??
N?A??? 
N?I>?? 
??E??
?"??=i
?Cy?=??@?)!
??a??T
????T?
_?_$
q@??
_?_$
?B?*
????H?{??
N?U?=?
~???
?v4?ne
??4?n?4?npE@??4?nc`
6?n?
GNrMA?96?nk
UNX6?nV
YNw6?n
?n??????
????T_
?????*?}?`
??i?=c
?f4?n?4?nc 
EN?(!
?.??
????T?
qh??
8a??T?
_?_$
_?????
_??#
??{???
?hb@9H
@??{???#
??{???
?hb@9H
@??{???#
??{???O
A?M?
*?OA??{???#
?@??4???????R!?7??
????
??{???_
??????
???7?
?9???7???
??4???R?
????
??OC??WB??_A??{???#
??{???O
A???
*?OA??{???#
?@??4???????R!?7??
????
??{???_
??????
???7?
A???
?9???7???
??4???R?
????
??OC??WB??_A??{???#
_?_$
?`???k?
?a??T
???@?J!
????T
8???T?
_?_$
q@??
_?_$
qh??
8a??T?
?#? ND? N
?nA???J?
????T
?@??T
?}?`
???@?k!
?"? 
?.??
?a??T
?a??T???
????
?U?;??
?)?B???
?????
????R?
@???_?
T?OF??{D??+@???
_??#
??????#
?B?;??
?l?????
???@9?
@?)?
??#@9?
@?#?
?U?;?
?)?B???
?????
?????R?
@???_?
T?OD??{B??
@??C
_??????
?;??
?+???a?
@???
??{???O
?A?`
?hb@9H
??OA??{???#
? L???#
??{???
??{???#
_??#
??{???
@?r?
?a??T?
@??OB??{???#
_??#
??{???
??{???#
_??#
??{???
@?U?
?a??T?
@??OB??{???#
_??#
?U?;??
?B??
????R?
@???_?
T?OF??{D??+@???
_??#
??????#
?B?<??
???????
???@9?
@?J?
??#@9?
@?D?
?U?;?J
?B??
?????R?
@???_?
T?OD??{B??
@??C
_??????
?<??
?P?????
??{???O
??OA??{???#
?NK???#
??{???W
*?OB??WA??{???#
*V?'6?
*??/6?
*??76?
??6?
*V?G6?
*??O7???
??{???_
T?????
{w??
@???
??T?
????4?
w????
??OC??WB??_A??{???#
_??#
??{???
5??O6?
?`??4
@??OC??WB??{???#
_??#
??{???
????5?
?@??5?
????5?
??5?
?`??5?
????5?
? ??5?
????5?
????5
@??OC??WB??{???#
_??#
??{???
??{???#
_??#
??{???
@?w?
?a??T?
@??OB??{???#
_??#
??{???
??{???#
_??#
??{???
@?Z?
?a??T?
@??OB??{???#
_??#
??{???O
*?OA??{???#
_??I???
??I???#
??{???_
@9??
*?????
????
??OC??WB??_A??{???#
_?oI???
?hI???#
??{???
@??OB??{???#
_?PI???
?II???#
??{???
@?V?
*x????
????
@??OD??WC??_B??{???#
I???
I???#
??{???
@??{???#
_?_$
_?_$
_?_$
_?_$
_?_$
_?_$
_??#
??{???O
??OA??{???#
????4???????R!?7??
????
?U?;??
?A??
????R?
@???_?
T?OF??{D??+@???
_??#
??????#
?B?4??
?u?????
???@9?
@?2?
??#@9?
@?,?
??{???
@??{???#
?H?;??
????T?
?B??
@?n?
@?V?
??C_8(
9A??T?
????T?
?A??T%
?A??T?
@???_?
T?OI??WH??_G??gF??oE??{D???
?R???
??G???
?G???G???
?G???G???
??G???#
?H?;??
????T?
@?6?B??
@???
@???
????T?
??T.
@?Y?
?8???
????T@
@???_?
T?OH??WG??_F??gE??oD??{C??C
?R???
G???
?F???F???
?F???F???
??F???#
?W?;??
9A??T?
T?OD??WC??{A??
@??C
_???
??F???
??F???#
?V?;??
@???
?RP?
T?OC??WB??{A??
_???
?rF??
pF???
?kF??jF??_$
_??#
??{???
????T?
@??OE??WD??_C??gB??{???#
_?/F???
?(F???#
?U?;??
@??OC??{A??
F???
F???#
??{???
@??{???#
?U?;??
????
???@??
@???_?
T?OD??{B??
@??C
_???
??T+}F?L
????TK
9???
q???T+}K?
T+}J?
??TK-@xl
??T,U
S?%v?l%@??A@??
9???
?9@q#
????T+}L?L
@?+-
????
_??#
?U?;??
????
???@??
@???_?
T?OD??{B??
@??C
_?:?
@9??
@9??
*??t??
@?? -??
????T*
@??5
????
_?_$
_?_$
_?_$
_?_$
????
@9_?
@9_?
@?JM
@?J5
?C??T
_?_$
_??#
??{???
@??{???#
@?*}
qd?Hz?
8???
9???
9???
9???
_?_$
????T
????T*
9???
????T
2???
?K??T
2???
????T
????
_??#
?U?;??
????
???@??
@???_?
T?OD??{B??
@??C
_?'?
@9??
@9??
@9??
?R???
????TM
@?JM
?R???
@?J5
t??-@??
?R???
_?_$
_?_$
_?_$
_?_$
????
@9??
@9??
@?JM
@?J5
t??-@?j
?C??T
_?_$
_??#
?U?;??
@???
 @??C
?C?????@??
@???_?
T?OD??{B??
@??C
_???
?U?;??
@???
 @??C
???????@??
@???_?
T?OD??{B??
@??C
_???
_?_$
_?_$
_?_$
 @??
?@9?
_?_$
?}?R?
????T?
8???
?+??TK}
9???
????TK}
9???
_?_$
@9??
@?I?t??
!)?#
????T 
_?_$
_?_$
_?_$
_?_$
@9??
@?kM
?#??T
_?_$
`@9?
_??#
?U?;??
@???
@??C
???????@??
@???_?
T?OD??{B??
@??C
_?e?
?U?;??
@???
@??C
?'?????@??
@???_?
T?OD??{B??
@??C
_???
_?_$
_?_$
_?_$
????
`@9?
_?_$
???R?$
@?l}
?+??Tn}
8???
?K??Tl}
?RO!N*n=
9???
_?_$
BD(?h
@9??x??
????T
@9?]
x??%v??
??A@??
?R???
??'?
?R???
?R???
_?_$
_?_$
_?_$
 @??
HD(??
@9?]
T_A.??
@9?]
x??%v??
??A@?_
?C??T
_?_$
?@9?
_?_$
???R?$
@?l}
?k??T?$
x???
????Tl}
9M!L*l=
????
_?_$
BD(?h
@9??x??
????T
@9?]
x??%v??
??A@??
?R???
??'?
?R???
?R???
_?_$
_?_$
_?_$
 @??
HD(??
@9?]
T_A.??
@9?]
x??%v??
??A@?_
?C??T
_?_$
?@9?
_?_$
???R?$
?K??T?}
?C??T?
_?_$
BD(?h
xc??T_
??'?
_?_$
_?_$
_?_$
_?_$
HD(??
??7?
E,??
?b1D??
?C??T
_?_$
`@9?
_?_$
???R?$
?K??T?}
?C??T?
_?_$
BD(?h
xc??T_
??'?
_?_$
_?_$
_?_$
_?_$
HD(??
??7?
E,??
?b1D??
?C??T
_?_$
`@9?
_?_$
???R?$
@?l}
?+??Tn}
8???
?K??Tl}
?RO!N*n=
9???
_?_$
BD(?h
@9??x??
????T
@9?]
x??%v??
??A@??
?R???
??'?
?R???
?R???
_?_$
_?_$
_?_$
HD(??
@9?]
T_A.??
@9?]
x??%v??
??A@?_
?C??T
_?_$
`@9?
_?_$
???R?$
@?l}
?k??T?$
x???
????Tl}
9M!L*l=
????
_?_$
BD(?h
@9??x??
????T
@9?]
x??%v??
??A@??
?R???
??'?
?R???
?R???
_?_$
_?_$
_?_$
HD(??
@9?]
T_A.??
@9?]
x??%v??
??A@?_
?C??T
_?_$
`@9?
_??#
?U?;??
@???
 @??C
???@??
@???_?
T?OD??{B??
@??C
_???
??T+}
@?+=@?
????TK
9???
q???Tl}
????TLM@??
????TkU
Sk%v??%@?kA@?
9???
9@q#
????Tk}
@?+-
????
_??#
?U?;??
@???
 @??C
???@??
@???_?
T?OD??{B??
@??C
??R_
@9??
@9??
@??M
????T*
@??5
????
_?_$
_?_$
_?_$
_?_$
 @??
????
?@9?
_??#
?U?;??
@???
@??C
?g?????@??
@???_?
T?OD??{B??
@??C
_?>?
?U?;??
@???
@??C
???????@??
@???_?
T?OD??{B??
@??C
_?_$
_?_$
_?_$
?{??
`@9?
_??#
?U?;??
@???
@??C
? ?????@??
@???_?
T?OD??{B??
@??C
_???
?U?;??
@???
@??C
???????@??
@???_?
T?OD??{B??
@??C
_???
_?_$
_?_$
_?_$
`@9?
_??#
??{???
@??{???#
??{???
@??{???#
??{???
@??{???#
??{???
@??{???#
????R*
_?_$
?????*
? !C?
_??#
??{???
@???
@??{???#
??{???
@???
@??{???#
??{???
@???
@??{???#
??{???
@???
@??{???#
@@9?
_?_$
_?_$
D@9?
_?_$
_?_$
??N?R
?R???r
_?_$
??????
??{???W
???|?
?~???~???
@?t?
z4??OB??WA??{???#
??8??_$
??,?RI
?R?m?r?
_?_$
??????
??{???O
????R?
?)mB?
??OA??{???#
?W?;??????
?!?7??
4???R?
@?`b
@???_?
T?OH??WG??{E??3@??C
_??#
??????#
?B?7??
???S?
???@9?
@???
??#@9?
@???
08??/8???
??{???O
????R?
?)mB?
??OA??{???#
??{???
@???
@??{???#
?W?;??
@???
k???T??
q???T?
@???_?
T?OE??WD??{B??
@???
_???
??7???
??{???
??{???#
_??7???#
??{???O
??????
?)qB?
!C?H
??OA??{???#
?W?;??????
?!?7??
4???R?
@?`b
@???_?
T?OH??WG??{E??3@??C
_??#
??????#
?B(6??
?*???`?
???@9?
@???
??#@9?
@???
=7??<7???
??{???O
??????
?)qB?
!C?H
??(?
??OA??{???#
??{???
@???
@??{???#
?W?;??
@???
??'?
@???_?
T?OE??WD??{B??
@???
_???
??6???
??6??_$
_??#
??{???
6`vA??
@??{???#
????
??{???
6?????
?!?"?]?
?????`b
?????`?
?!02?U?
?????`"
?!t(?Q?
?????`?
?????`?
?????`B
?????`?
?????`
?????`b
?????`?
?????`"
?!p!?1?
?????`?
?!`.?-?
@?????!P2??{???#
?@??4
p8?B?
?= ?
????
??{???
6`~A??
@??{???#
????
??{???
6?????
?????`b
?????`?
?????`"
?????`?
?????`?
?????`B
?????`?
?????`
?????`b
?????`?
?????`"
?????`?
@?????!?
??{???#
?@??4
0>?B?
?=??
????
??{???
6`?A??
@??{???#
????
??{???O
?????s?
?!p.??
?????`b
?????`?
?!`2?W?
?????`"
?????`?
???,??
?????`?
?!?=?J?
?????`B
?!?(?F?
?????`?
?????`
?????`b
?!?.?:?
?????`?
?????`"
?!x%?2?
?????`?
?!?7?.?
?????`?
?????`B
?????`?
?!?!?"?
?????`b
?!?(?
?????`?
?????`"
?????`?
?????`?
?!?"?
?????`B
?!?!?
??????OA?!4
??{???#
?$???
??4?
?$???
????
??{???
6`?A??
@??{???#
????
??{???O
?????s
%?!?
?????`b
?????`?
?????`"
?????`?
?????`?
?????`B
?????`?
?????`
?????`b
?????`?
?????`"
?????`?
?????`?
?????`B
?????`?
?????`b
?????`?
?????`"
?????`?
?????`?
?????`B
??????OA?!?
??{???#
??4?
H?Rw?
????
??{???
6`?A??
@??{???#
????
??{???
?.?s".?
6?????
?!?"?
@?????!?!??{???#
?.???
?@??4
?.???
????
??{???
6`?A??
@??{???#
????
??{???
?/?s
6?????
@?????!P
??{???#
?/???
?@??4
?=??
?/???
????
??{???
??{???#
????4?
?????
?B???
????
??{???
??{???#
????4?
?????
?B???
????
??{???
??{???#
????4?
?????
?B?c?
????
??{???
??{???#
????4?
?????
?B?;?
????
??{???
??{???#
????4?
?????
????
??{???
??{???#
????4?
?????
?B???
????
??{???
??{???#
????4?
?????
?!D(???
?B???
????
??{???
??{???#
????4?
?????
?B???
????
?U?;??
@????R?
@???_?
T?OF??{D??+@???
_??#
??????#
?Bl6??
?`?????
???@9?
7?#@9h
??#@9h?
??#@9??
?U?;??
????R?
??y?
@???_?
T?OD??{B??
@??C
_??????
l6??
?'???]?
@???
??{???
@?}?
??{???#
_?82???#
?H?;??
?????
@??????
? Q?=AY?=
?R??
y??@???
?RQ?
@?(yh??
?R8?
?l??T?
?R3?
????
?R#?
7???
?bN9??A???N9??A?
??I?A?_
?R??
?R??
????
ya??
07??
?R??
@????
????
?R??
??#@?
q???T??
?h?C?iU??
?@?_
?9(??7
@?(yh???76j?@?h
?A?i
8j??
?f??
%@??
ya??
%@??
ya?h
%@??
ya?(
%@??
T?'@??
T????k!
jih8)
?Rd?
?Ra?
????
?RY?
?RV?
????
?`??T
?!??T???
?RD?
?RA?
????
?R<?
?R9?
????
?R4?
?R1?
?z??
?R,?
?R)?
?r??
?R$?
?R!?
?j??
?b??
?Z??
?R??
?K??
T?OS??WR??_Q??gP??oO??{N??
_???
@?:?
?C?iU????
?T?;?
@?_?
??;@??
@???A??
??????i
9???
??B???
*?;@?w
qA??T?
i{8?
*?;@??
!k!??T?
9???
?R???
qA??T+
@?m?A?
?`??T
9???
??????
???@??
?A??T(
??OP??WO??_N??gM??oL??{K??C
??????
??{???o
?\?;??
@??????????
? Q?=AY?=?
@??'
?R?;
?RD?
?RO?
??C@??
?RA?
????
?R$?
?,??T?
????
?bN9??A???N9??A?
??I?A?_
?R??
?R??
????
@??C
5@??
5@??
5@??
5@??
?R??
q???T??
?(?C?iU??
?@?_
????
@9i?@?
5@??
?RT?
?RQ?
?R?/@??
T????k
jih8)
?R=?
?R:?
????
????
T_5 q
?R-?
?R*?
????
??C@?
??C@?
?!??T???
????
????
????
?R??
????
?R??
?R??
????
?R??
?R??
????
?R??
?R??
????
?R??
?R??
????
?R??
?R??
????
??OE??WD??_C??gB??oA??{???#
_?????
47???
?-???
@???
?C?iU????
?T?;?
@?_?
??;@??
@???A??
??????i
9???
??B???
*?;@?w
qA??T?
y{??
*?;@??
k!??T?
9???
?R???
qA??T+
@?m?A?
?`??T
9???
??????
???@??
?A??T(
??OP??WO??_N??gM??oL??{K??C
??????
?X?;?????
o?????
??V,??
@???
@???
?A??T????w????
??V.??^
@???
@???
?A??T????(
?R??,?d
@???
@???
?h"O9u"
6`?A?L?
????<A
?=??
?h?O9u?
6`?A?>?
????<
?=}?
?h?O9u?
B?0?
????<
?=o?
?hBP9tB
B?"?
????<?
@???_?
T?OQ??WP??_O??gN??{M???
_???
??{???o
?H?;??3
?????
?R9W,??C
?=?'
@???
?R??
E@8?
?)?@??
T??~?k
??'?
????T?
?????d
@???
?R??
E@8?
?)?@??
T??~?k
??'?
????T?
@9h?
?R??
@?l?}???~??
?@???J?
?a??T
?@??T???
@?l?}???~??
?@???J?
?a??T
?@??T???
??????
?R?W.???
@???
aE9*?
???@?C
???@?
E@8?
?@?J
?)?@??
T??~?k
??'?
????T?
?b???d
@???
?RB\
?R??
aE9*?
???@?C
???@??
E@8?
?@?J
?)?@??
T??~?k
??'?
????T?
@9(?
?P??
@?l?}???~??
?@???J?
?a??T
? ??T???
@?l?}???~??
?@???J?
?a??T
?@??T???
????(
@?B?,???
?R?[
?R4?
Ti?A??
?RhbN9vb
Ti?A?
?hbN9?
?i?A?
h?A??
?)?@??
T??~?L
??'?
????T?
??????
@?B?,???
?R?[
?R??
Ti?A??
?Rh?N9v?
Ti?A?
?h?N9?
?i?A?
h?A??
?)?@??
T??~?L
??'?
????T?
@???
?h"O9t"
6`?A???
????<A
?=??
?h?O9t?
6`?A?
????<
?=??
?h?O9t?
B?q?
????<
?=??
?hBP9tB
B?c?
@????<?
??OE??WD??_C??gB??oA??{???#
?l?}???~??
?@???J?
?a??T
????TG??
?l?}???~??
?@???J?
?a??T
??T???
????
47?6?
??)???)??
?)???)???)???)??
?U?;??
??R]?
?R??
?B??
?A??
??c@9H
@???_?
T?OE??{C??#@???
_?W?
?=)???
?hBP9(
7h?O9h
7h?O9?
7h"O9?
7h?N9(
7hbN9h
6`?A???
E9??
?@???
????
7h?D9
7hBD9H
7h?C9?
7h?C9?
7h"C9
7h?B9H
7hbB9?
7h?A9
7hBA9H
7h?@9?
7h?@9?
7h"@9h
@???
B???
?h?O9??
B???
?h?O9??
6`?A???
?h"O9h?
6`?A???
?h?N9(?
6`?A???
?hbN9??
7???
`?@???
?h?D9H?
6`?@???
?hBD9
6`?@???
?h?C9??
6`?@?|?
?h?C9??
6`z@?x?
?h"C9H?
6`n@?t?
?h?B9
6`b@?p?
?hbB9??
6`V@?l?
B9??
6`J@?h?
?h?A9H?
6`>@?d?
?hBA9
6`2@?`?
?h?@9??
6`&@?\?
?h?@9??
@?X?
?h"@9H?
7???
??{???O
?A?`
?hb@9H
??OA??{???#
??(???#
?U?;??
????R?
????
??Rs?
?Rs?
?B??
?A??
??c@9H
@???_?
T?OE??{C??#@???
_?`????
l6??
?0???f?
?L(???
?hBP9
7h?O9H
7h?O9?
7h"O9?
7h?N9
7hbN9h
6`?A???
E9??
?@???
????
7h?D9?
7hBD9(
7h?C9h
7h?C9?
7h"C9?
7h?B9(
7hbB9h
7h?A9?
7hBA9(
7h?@9h
7h?@9?
7h"@9h
@???
B???
?h?O9
B???
?h?O9??
6`?A???
?h"O9??
6`?A???
?h?N9H?
6`?A???
?hbN9
7???
`?@???
?h?D9h?
6`?@???
?hBD9(?
6`?@???
?h?C9??
6`?@???
?h?C9??
6`z@???
?h"C9h?
6`n@???
?h?B9(?
6`b@???
?hbB9??
6`V@?|?
B9??
6`J@?x?
?h?A9h?
6`>@?t?
?hBA9(?
6`2@?p?
?h?@9??
6`&@?l?
?h?@9??
@?h?
?h"@9h?
7???
@?^?
?U?;??
??R??
?B??
@???_?
T?OD??{B??
@??C
_???
??'???
?hBP9(
7h?O9h
7h?O9?
7h"O9?
7h?N9(
7hbN9h
6`?A?
E9??
????
7h?D9
7hBD9H
7h?C9?
7h?C9?
7h"C9
7h?B9H
7hbB9?
7h?A9
7hBA9H
7h?@9?
7h?@9?
7h"@9h
@???
B???
?h?O9??
B???
?h?O9??
6`?A???
?h"O9h?
6`?A???
?h?N9(?
6`?A???
?hbN9??
7???
`?@???
?h?D9H?
6`?@???
?hBD9
6`?@???
?h?C9??
6`?@???
?h?C9??
6`z@???
?h"C9H?
6`n@???
?h?B9
6`b@???
?hbB9??
6`V@???
B9??
6`J@???
?h?A9H?
6`>@???
?hBA9
6`2@???
?h?@9??
6`&@???
?h?@9??
@???
?h"@9H?
7???
??{???O
??OA??{???#
??&???#
?U?;??
????R?
????
??R??
?R??
?B??
@???_?
T?OD??{B??
@??C
_?`????
l6??
???????
??&???
?hBP9
7h?O9H
7h?O9?
7h"O9?
7h?N9
7hbN9h
6`?A?8?
E9??
?@?/?
????
7h?D9?
7hBD9(
7h?C9h
7h?C9?
7h"C9?
7h?B9(
7hbB9h
7h?A9?
7hBA9(
7h?@9h
7h?@9?
7h"@9h
?h?O9
?h?O9??
6`?A?
?h"O9??
6`?A???
?h?N9H?
6`?A???
?hbN9
7???
`?@???
?h?D9h?
6`?@???
?hBD9(?
6`?@???
?h?C9??
6`?@???
?h?C9??
6`z@???
?h"C9h?
6`n@???
?h?B9(?
6`b@???
?hbB9??
6`V@???
B9??
6`J@???
?h?A9h?
6`>@???
?hBA9(?
6`2@???
?h?@9??
6`&@???
?h?@9??
@???
?h"@9h?
7???
@???
B?,?A??
?h??T
Ik8ke
T??????
?ik8?
?h??T?
?h??T?
_??$
?h??T?
?h??T?
_??$
?h??T?
?h??T?
?h??T?
_??$
_?_$
B?,?A??
?h??T
Yk?ke
T?????e
?ik8?
?h??T?
?h??T?
_??$
?h??T?
?h??T?
_??$
?h??T?
?h??T?
?h??T?
_??$
_??#
?U?;??
@????R?
@???_?
T?OF??{D??+@???
_??#
?b????#
???????
???@9?
7?#@9h
@?V?
??#@9h?
??#@9??
@?N?
?U?;??
????R?
????
@???_?
T?OD??{B??
@??C
_?`????
?d?????
@?!?
??{???
@???
??OB??
@??{???#
?`??4a??????R!?7??
????
?T$??S$???#
?W?;??
@????R?
?????`
?7???`
@??b
@???
??FA9
??ZA9?
4?"@??"
?????!`,???
??^A9?
4?&@???
?????!`,???
??ZA9?NA9?JA9??
??^A9?VA9?RA9?
???@9h
@???
@???_?
T?OH??WG??{E??3@??C
_??#
?b????#
???????
???@9?
@?s?
??#@9H
?#???#??
??@9?
@?`?
??{???
@9i?@?
?9?_8"
T?????
@?)?
+ih8J
?i@?R?
??r?
??R?
??TH
??)?
??????
?*?_8-
??5@8?????
????T?
9???T?
T?????
@?)?
+ih8J
?i??R?
@?r?
@?R_
H`?R
??r?
??OD??WC??_B??
@??{???#
_?(@?R
H ?R4
h ?R
?R??
@?R?
x???
? ?R?
x???4h
??R?
@??OD?
?R?WC??_B??{???#
(??R
?R??
????
(`?R?
x8??4?
?R??
????
h?@?
9???
?W?;??
@????R?
?t???`
?l???`
@??b
@???
??BA9
??rA9?
4?"@??"
?????!`,?
??vA9?
4?&@???
?????!`,?
??rA9?fA9?bA9??
?R}????
??vA9?nA9?jA9?
?Rv?????@9h
@???
@???_?
T?OH??WG??{E??3@??C
_??#
?b????#
?????!?
???@9?
@???
??#@9H
?!???!??
??@9?
@???
??{???g
?Y?;??
@????R?
?????`
?????`
@?`b
?R^?
@?*}
?h?@9?
?i"@?
i"@??
?)?@??
T??~?L
??'?
????T?
??FA9
??ZA9h
4?"@??
Th*@?*}
?h"A9
?i.@?
?????!P
??^A9
4?&@??
?R??
Th6@?*}
?h?A9?
?i:@?
i.@?
?)?@??
T??~?L
??'?
????T?
9?^A9???5
??^A9H??5`?
?????!P
i:@??
?)?@??
T??~?L
??'?
????T?
??ZA9?NA9?JA9?C
??^A9?VA9?RA9?
??C@9h
@?V?
@???_?
??OD??WC??_B??gA??{???#
?l?}???~??
?@???J?
?a??T
?@??T
?l?}???~??
?@???J?
?a??T
? ??T???
?l?}???~??
?@???J?
?a??T
? ??T???
?b????C
?=?#
?>???`???
?`???
?`???
???@9?
6?#@???
??C@9?
K ??J ??
H ??
E ??D ??
?C@9?
@???
??{???
4j?@?k
?A?w
?9?_?"
T?????
+ih8J
?i@?R?
??r?
)?~?)1
T??@??
??R?
??T?
*?B?i
??J?
??????
?R+?_?.1
N???@??
??????
????T?
????T?
T?????
@?)%
+ih8J
?i??R?
@?r?
@?R_
H`?R
??r?
??OD??WC??_B??
@??{???#
_?(@?R
H ?R4
h ?R
?RG?
@?R?
x???
? ?R?
x???4h
??R?
@??OD?
?R?WC??_B??{???#
(??R
?R ?
????
(`?R?
x8??4?
????
h?@?
????
??{???g
?Y?;??
@????R?
?????`
?????`
@?`b
?Rh?
@?*}
?h?@9?
?i"@?
i"@??
?)?@??
T??~?L
??'?
????T?
??BA9
??rA9h
4?"@??
Th*@?*}
?h"A9
?i.@?
?????!P
??vA9
4?&@??
?R??
Th6@?*}
?h?A9?
?i:@?
i.@?
?)?@??
T??~?L
??'?
????T?
9?vA9???5
??vA9H??5`?
?????!P
i:@??
?)?@??
T??~?L
??'?
????T?
??rA9?fA9?bA9?C
?R????`
??vA9?nA9?jA9?
?R?????C@9h
@?`?
@???_?
??OD??WC??_B??gA??{???#
?l?}???~??
?@???J?
?a??T
?@??T
?l?}???~??
?@???J?
?a??T
? ??T???
?l?}???~??
?@???J?
?a??T
? ??T???
?b????C
?=?#
?H???`???
?`???
?`???
???@9?
6?#@???
??C@9?
?C@9?
@???
??{???
@??{???#
??{???
@??{???#
??{???
@??{???#
??{???
@??{???#
??{???
@??{???#
??{???
@??{???#
??{???
@??{???#
??{???
@??{???#
??{???
@??{???#
??{???
@??OB??{???#
?@??4A??????R!?7??
????
???#
??{???
@??{???#
??{???
@??{???#
??{???
@??{???#
??{???
@??{???#
??{???
@??{???#
??{???
@??{???#
??{???
@??{???#
??{???
@??{???#
??{???
@??{???#
??{???
@??{???#
??{???
@??{???#
_?_$
_?_$
_?_$
_?_$
_?_$
_?_$
_?_$
_?_$
_?_$
_?_$
_?_$
_?_$
_?_$
_??#
??{???
@??{???#
??{???
@??{???#
_?_$
_?_$
_?_$
_?_$
_?_$
_?_$
_?_$
_?_$
_?_$
_?_$
_?_$
_?_$
_?_$
_??#
??{???
@??{???#
??{???
@??{???#
??{???
@??{???#
??{???
@??{???#
??{???
@??{???#
??{???
@??{???#
??{???
@??{???#
??{???
@??{???#
??{???
@??{???#
??{???
@??{???#
??{???
7h"A9
7h?@9H
7hb@9h
@???
@??{???#
`:@???
?h"A9H?
6`.@???
?h?@9
6`"@???
?hb@9??
7???
??{???
??????
@??{???#
??{???
7h"A9
7h?@9H
7hb@9h
@???
@??{???#
`:@???
?h"A9H?
6`.@???
?h?@9
6`"@?~?
?hb@9??
7???
??{???
??????
@??{???#
??{???
7h"A9
7h?@9H
7hb@9h
@?]?
@??{???#
`:@?V?
?h"A9H?
6`.@?R?
?h?@9
6`"@?N?
?hb@9??
7???
??{???
??????
@??{???#
??{???
7h"A9
7h?@9H
7hb@9h
@?-?
@??{???#
`:@?&?
?h"A9H?
6`.@?"?
?h?@9
6`"@?
?hb@9??
7???
??{???
??????
@??{???#
??{???
@??{???#
??{???
@??{???#
??{???
@??{???#
??{???
@??{???#
??{???
@??{???#
??{???
@??{???#
??{???
@??{???#
??{???
@??{???#
??{???
??{???#
???#
??{???
?B???
?U9?
?B???
AU9?
?B???
?T9?
?B???
?T9?
?B???
!T9?
?B???
?S9?
?B???
aS9?
uB?{?
iB?u?
?R9?
]B?o?
AR9?
QB?i?
?Q9?
EB?c?
?Q9?
9B?]?
!Q9?
7?{???#
-B??{???#
??{???
a[9?
uC?I?
iC?C?
?Z9?
]C?=?
AZ9?
QC?7?
?Y9?
EC?1?
?Y9?
9C?+?
!Y9?
-C?%?
?X9?
aX9?
?W9?
AW9?
?V9?
?V9?
7?{???#
?B??{???#
??{???O
H?R??
?^8??
?_???
????
?OA??{???#
_??#
??{???O
H?R?
?^8??
?_???
????
?OA??{???#
_??#
??{???
?n9?
?E???
!n9?
7?{???#
?E??{???#
??{???
ao9?
?E???
7?{???#
?E??{???#
??{???g
???C?
?C??
????
?B???}??
?)3??
??71????}??
?Rv?
??}???
??OD??WC??_B??gA??{???#
?U?;?J
?????R?
@???_?
T?OD??{B??
@??C
_?@????
?T?????
?U?;?J
?????R?
@???_?
T?OD??{B??
@??C
_?@????
???P?
@???
??{???_
?@??
?5?C??
?+?}?K
???}?
?B?_
?)1??
??71??7
D9?r
?@z?
T??}???
???}??
???}?
?a"@??
@?tb
T?OC??
??WB??_A??{???#
9?OC??WB??_A??{???#
??{???O
?A?`
?hb@9H
??OA??{???#
???#
??{???O
??OA??{???#
???#
?X?;??
?R ???
T?OE??WD??_C??gB??{A???
? ??4A??????R!?7??
????
?X?;??
?R ???
T?OE??WD??_C??gB??{A???
? ??4A??????R!?7??
????
?X?;??
?P?H
T?OF??WE??_D??gC??{A??
@???
??T?
?R???R???
?`??4A??????R!?7??
????
?X?;??
T?OF??WE??_D??gC??{A??
@???
?`??
?Z???
????4A??????R!?7??
????
?X?;??
T?OF??WE??_D??gC??{A??
@???
_???
?????
????4A??????R!?7??
????
?X?;??
T?OF??WE??_D??gC??{A??
@???
_???
?????
????4A??????R!?7??
????
?W?;??
?R @ 
T?OD??WC??_B??{A??C
?@??4A??????R!?7??
????
?W?;??
?R @`
T?OD??WC??_B??{A??C
?@??4A??????R!?7??
????
?W?;??
h????
I?=i
Th???
I?=?
T?OE??WD??_C??{A??
@???
??4A??????R!?7??
????
?Y?;??
@9,?
?K?A?_
?|??
@???
???@?J
?A?A
@???
??{??
?`???k?
?a??T?
8???T
@???_?
@??OF??WE??_D??{B???
@???
?W?;??
@9,?
?K?A?_
?8?B?J
???O
?~?@?~???
@???
T"?~??
?~???
???@?J
?A?A
@?#?
)?B??
?K?}??B
?i?~??A
???????
?a??T_
T*E@??
????T
@???_?
??OF??WE??_D??gC??{B???
@???
??{???O
@P9h
7h?O9?
7h?O9?
7h"O9(
7h?N9h
7hbN9h
6`?A???
E9??
?@???
????
7h?D9H
7hBD9?
7h?C9?
7h?C9
7h"C9H
7h?B9?
7hbB9?
7h?A9H
7hBA9?
7h?@9?
7h?@9
7h"@9h
@???
@?E?
??OA??{???#
B???
?h?O9??
B???
?h?O9h?
6`?A???
?h"O9(?
6`?A???
?h?N9??
6`?A???
?hbN9??
7???
`?@???
?h?D9
6`?@???
?hBD9??
6`?@???
?h?C9??
6`?@?~?
?h?C9H?
6`z@?z?
?h"C9
6`n@?v?
?h?B9??
6`b@?r?
?hbB9??
6`V@?n?
B9H?
6`J@?j?
?h?A9
6`>@?f?
?hBA9??
6`2@?b?
?h?@9??
6`&@?^?
?h?@9H?
@?Z?
?h"@9
7???
???#
??{???O
@P9h
7h?O9?
7h?O9?
7h"O9(
7h?N9h
7hbN9h
6`?A?C?
E9??
?@?:?
????
7h?D9H
7hBD9?
7h?C9?
7h?C9
7h"C9H
7h?B9?
7hbB9?
7h?A9H
7hBA9?
7h?@9?
7h?@9
7h"@9h
@???
??OA??{???#
?h?O9??
?h?O9h?
6`?A?
?h"O9(?
6`?A?
?h?N9??
6`?A?
?hbN9??
7???
`?@???
?h?D9
6`?@???
?hBD9??
6`?@???
?h?C9??
6`?@???
?h?C9H?
6`z@???
?h"C9
6`n@???
?h?B9??
6`b@???
?hbB9??
6`V@???
B9H?
6`J@???
?h?A9
6`>@???
?hBA9??
6`2@???
?h?@9??
6`&@???
?h?@9H?
@???
?h"@9
7???
??_$
??{???
@??{???#
?@???
?(??
_?_$
_?_$
 ?_$
 ??#
??{???
?R??
??{???#
_??#
??{???O
????
??OA??
?{???#
_??#
??{???
?R??
??{???#
_??#
??{???
?Rw?
??{???#
_??#
??{???O
??x?
??OA??{???#
???????
??i?
?@???h
??OA?
@??{???#
??{???
?(???
??W?
@??{???#
@??{???#
??{???O
????
??T?
??OA??{???#
_?_$
_??#
??{???O
????
??OA??{???#
???#
??{???
@?I?
??{???#
??_$
?(???
A??)!
?????)
?I?I?(}
?o?(
J)??R
?)?!?
_?_$
_?_$
_?_$
_?_$
_?_$
_?_$
_??#
??{???
5?{???#
_?A???!
??{???
?{???#
???#
??{???
??{???#
???#
?U?;??
@??C
?Re?
@???_?
T?OD??{B??
@??C
?A????
@?!t
??{???
??{???#
???#
??{???
5?{???#
_?A???!?8?/?
??{???
??{???#
???#
??{???
?{???#
??_$
_??#
??{???O
??OA??{???#
A???!
???#
?U?;?)
5hbA9?
?hbA9???5?C@9)
?Rib
?Rhb
@?W?
@???_?
T?OD??{B??
@??C
_?A???!
???#
??{???
 @9h
@?A?
??{???#
???#
??{???O
hbA9
?Rhb
*?OA??{???#
???#
??{???
@??{???#
_?A???!
??_$
_??#
??{???O
??OA??{???#
A???!
???#
?V?;??
@???
5a2@?t
4h.@?
?(???h.@??
?h.@?????(
?R?C@9h?
?Rh?
@???
@???_?
T?OD??WC??{B??C
_?A???!
?A???`
?R!\
?`????
???#
??{???
h.@??
?a2@??
4h.@?
?Rh?
??OB??
@??{???#
???#
??{???
5h.@?
@??{???#
@??{???#
A???!
???#
??{???
?`??Th
??OC??
??WB?
@??{???#
??h????
??OC??WB??
@??{???#
_???
???#
??{???
??{???#
???#
??{???
??{???#
???#
??{???
??{???#
???#
??{???
?( @9?
@???
5?{???#
_?A??? 
?R!|
?A???!?,?h?
???#
?S?;?h
@???
?( @9
4((??i???
???????
}??_
??%??H???!
}I?*?Z?I?I?????????(!
@???_?
T?{B??
_?A??? 
)?9?
?A???!?
???#
??{???W
@?X?
?R??
@?M?
9?OB??WA??{???#
??{???
??{???#
???#
??{???
?R]?
?!?B?B?B?Y?
??{???
?????
@??{???#
?RB?
?!?B?B?B?>?
??{???
??{???#
_???
????
??_$
??{???
??{???#
_???
????
??_$
?U?;?
??? 
?4????
?????
T?OC??{A??
?R??
?!?B?B?B???
??{???
??{???#
_???
????
??_$
??{???
??{???#
_?y?
????
??_$
??{???W
?B?)
??2?
??OB??WA??{???#
??{???W
??OB??WA??{???#
??{???
?B?)
?R??
??{???#
_??#
??{???O
?R1?
??OA??{???#
_??#
??{???W
?B?)
????
??OB??WA??{???#
??{???W
????
??OB??WA??{???#
??{???
?B?)
?R??
??{???#
_??#
??{???O
?R??
??OA??{???#
_??#
??{???
?@???
 ?\????#
??{???
?@???
??{???O
?R??
?!?B?B?B???
??{???
?61??
k(8?
@??OE??WD??_C??gB??{???#
??{???o
???????
?(1??
?)?|??
??WD??
??k)8?OE??_C??gB??oA??{???#
?*1??+
?J???
?Q?_8??_8
kA??T?
??ip8
?1?_8?
k ??T???
_??#
??{???W
?|??
@???
??j38?OB??WA??{???#
??{???W
?=?WA?h
?=?OB??{???#
_?6?@??Z
?|??
@?v?
??OB??WA??{???#
??{???W
??OB??WA??{???#
??{???W
?=?WA?h
?=?OB??{???#
_?6?@??Z
?|??
@?v?
??OB??WA??{???#
??{???W
?@??
??ju8?
??????
??OB??WA??{???#
_?_$
??{???
?!??T
??OC??WB??
@??{???#
_??#
??{???_
k(8?
??OC??WB??_A??{???#
??{???
???????
?(1??
?)?|??
??WD?h
@??OE??_C??gB??{???#
_??#
??{???W
?|??
@???
??j38?OB??WA??{???#
??{???
??{???#
_?,?
??{???_
?"?U??????
k(8?
??OC??WB??_A??{???#
r)?A?H
????T)
????T?
_??#
??{???
?81??
??k(8?OD??WC??_B??
@??{???#
??{???
??j48h
@??OB??{???#
_??#
??{???_
Th&@??
r??A?
?????*A
?J?|?J
?W????
????T?
@?hZ
??OC??WB??_A??{???#
_?K?
????T???
??OC??WB??_A??{???#
??{???W
,@??
?A?!
??j(8?
??OB??WA??{???#
_??#
??{???
?41??i
??j48h
@??OB??{???#
??{???
?31??3
@??{???#
_?o?
??{???
?51???B
?|??
@?u?
j58?
@??OC??WB??{???#
??{???
@??{???#
_??#
??{???W
?|??
@?t?
j48?OB??WA??{???#
??{???
??OB??
@??{???#
??{???W
?A?(
?5???
??ju8?
?@???
??OB??WA??{???#
_??#
??{???
?V@?
9?OB?
9?{???#
_??#
??{???_
?h*@??
?)?A??
k78?
??OC??WB??_A??{???#
_?_$
? ????
!k???T?
_??#
??{???
??????
?)?|??
??j48h
@??OD??WC??_B??{???#
??{???W
?61??"
i!8a
??j)8?
??OB??WA??{???#
??{???W
@?*?A??
@?l&@?j
1???
?RM?A??
??j(8?
??OB??WA??{???#
??{???W
????
??)?
????
!?Z?OB??WA??{???#
???#
??{???O
?41???
?????
????
!?Z?OA??{???#
_?K?
??{???
?71???
????
!?Z?OC??WB??
@??{???#
??{???
??{???#
??{???W
??j48h
??OB??WA??{???#
_??#
??{???_
?A?7
???OC??
??WB??_A??{???#
?"??T?
??????
?@??4?
?J??T???
??{???O
?k?@?h
?A?H
??+?A??
?s1??J
?T1???
??2???
5?Z?OA??{???#
_?@???
P-??????#
??{???
*?@??
??h?
??j48
4?@??Z
@??OB??{???#
_??#
??{???
?i*@??
@9)?
?A?a
??j(8?
@??OC??WB??{???#
_??#
??{???
?$1???{???#
??{???
,@??
r)?A?6
??I?
?RN?
??j58h
??j*8i
r?OC?
??WB??{???#
_??#
??{???
??{???#
_??#
??{???
?#1???{???#
??{???
?61??
{(??
@??OE??WD??_C??gB??{???#
???#
??{???
??{???#
???#
??{???o
?????
???????
?(1??
?)?~??
1????~??
? ???
?W???
???~?
T??~?i
??WD??
{)??OE??_C??gB??oA??{???#
??_$
?@??
r)?A?)
?*1??+
?J???
Tm?~??
?Q?_???_?
kA??T?
??ip?
?1?_??
k ??T???
_??#
??{???W
???|?
?~???~???
@???
??z3??OB??WA??{???#
???#
??{???W
5?@??
??|??
?~???~?s?
@?u?
??OB??WA??{???#
???#
??{???W
??OB??WA??{???#
??{???W
5?@??
??|??
?~???~?4?
@?u?
??OB??WA??{???#
???#
??{???W
?@??
r)?A?)
?(???
??jv??
???????B?
???OB??WA??{???#
_?_$
@???
??{???
r)?A?
?~??
?!??T
?B??OC??WB??
@??{???#
_??#
??{???_
{(??
??OC??WB??_A??{???#
???#
??{???
?????h
???????
?(1??
?)?~??
1??h?~?h
?`?~?e?
?~?I
??WD?h
@??OE??_C??gB??{???#
? ???
?????P
??_$
_??#
??{???W
???|?_
?~???~?
@???
??z3??OB??WA??{???#
???#
??{???
??{???#
_???
??{???
?"?U???????
{(??
@??OD??WC??_B??{???#
??_$
r)?A?
?k?~?,
??E@??
????T)
????T?
_??#
??{???
?81??
??{(??OD??WC??_B??
@??{???#
???#
??{???
??z4?h
@??OB??{???#
???#
??{???_
???|??
Th&@??
r??A?
?????*
?J?~?J
?W????
T(?~??
? ?~???
(?~??
? ?~???
@?hZ
??OC??WB??_A??{???#
? ???
????? ???
??????
??OC??WB??_A??{???#
??{???W
,@??
?A?!
??z(??
??OB??WA??{???#
???#
??{???
?"1???{???#
??{???
?31??S
@??{???#
???#
??{???
r??|?v
?51???
?~???~?&?
@?u?
z5??
@??OC??WB??{???#
???#
??{???
?@??
r)?A?)
@??{???#
_??#
??{???W
???|??
?~???~???
@?t?
z4??OB??WA??{???#
??????#
??{???
??OB??
@??{???#
??{???W
r)?A?
?)????
?5?~?
??ju??
?@?????B?
???OB??WA??{???#
_??#
??{???
?V@?
)?OB??{???#
_??#
??{???
?h*@??
?)?A??
??z(??
@??OC??WB??{???#
_?D???_$
?~??
?*ih?
k???T
?B??
_??#
??{???W
??z4?h
??OB??WA??{???#
_??????#
??{???W
?61??"
y!?a
??z)??
??OB??WA??{???#
??????#
??{???
?"1???{???#
??{???W
??v?
????
!?Z?OB??WA??{???#
??????#
??{???O
?41???
?????"
????
!?Z?OA??{???#
??{???
?71???
???"
????
!?Z?OC??WB??
@??{???#
??{???
??{???#
_???
??{???O
??OA??{???#
??{???_
r)?A?
???OC??
??WB??_A??{???#
??T?
??????
? ??4?
?*??T???
??{???O
?l?@?h
rJ?A?
??+?A??
?s1??J
?T1???
??2???
5?Z?OA??{???#
_? ???
P-??????#
??{???
*?@?,
??h?
??z4?
4?@??
@??OB??{???#
_?e???d????#
??{???O
??OA??{???#
??{???
?$1???{???#
??{???_
,@??
r)?A??
??I?
?U?B?
{)?h
r?OC??
??WB??_A??{???#
????#
??{???
??{???#
_??#
??{???
?#1???{???#
??{???g
@?I?A?_
k78?
@?j.@?_
??I?
?A?A
?|??
@?w?
?w??????
??j(8?OD??WC??_B??gA??{???#
?T?;?j??R?
?R?-?r??
?3??
T?#@9h
@???
@???_?
*?OE??{D???
_?!?????
?R??
?!?B?B?B???
???@9?
7?#@9h
@???
??#@9h?
??#@9??
@???
?T?;?j??R?
?R?-?r??
?3??
T?#@9h
@???
@???_?
*?OE??{D???
_?!?????
?R??
?!?B?B?B???
???@9?
7?#@9h
??#@9h?
??#@9??
@?w?
?T?;?j??R?
?R???r??
@?]?
@???_?
??OC??{B??
_???
@?M?
?T?;?j??R?
?R???r??
@?3?
@???_?
??OC??{B??
_???
@?#?
?W?;?j??R?
@????r?
@??S
@???
@???_?
??OG??WF??_E??{D??
_?!?????
?R??
?!?B?B?B???
?!?????
?R??
?!?B?B?B???
???@9?
@???
@9h?
@9??
@???
?W?;?j??R?
@????r?
???S
?B?h
@?u?
@???_?
??OG??WF??_E??{D??
_?!?????
?Rr?
?!?B?B?B?i?
?!?????
?R^?
?!?B?B?B?U?
???@9?
@?1?
@9h?
@9??
@?)?
?W?;?j??R?
@????r?
@??S
@???
@???_?
??OG??WF??_E??{D??
_?!?????
?R??
?!?B?B?B???
?!?????
?R??
?!?B?B?B???
???@9?
@???
@9h?
@9??
@???
?W?;?j??R?
@????r?
???S
?B?h
@?{?
@???_?
??OG??WF??_E??{D??
_?!?????
?Rx?
?!?B?B?B?o?
?!?????
?Rd?
?!?B?B?B?[?
???@9?
@?7?
@9h?
@9??
@?/?
?W?;?i??R?
@????r???R?
@??S
@???
@???_?
??OG??WF??_E??{D??
_?!?????
?R??
?!?B?B?B???
?!?????
?R??
?!?B?B?B???
???@9?
@???
@9h?
@9??
@???
?W?;??
@????R?
?h??R???r?
@9?S
????
?B?h
@???_?
??OG??WF??_E??{D??
_?!?????
?R|?
?!?B?B?B?s?
?!?????
?Rh?
?!?B?B?B?_?
???@9?
@?;?
@9h?
@9??
@?3?
?V?;?j??R?
@????r?
T?OG?
?WF???D??/@??#@??
_?!?????
?!?B?B?B???
?!?????
?R??
?!?B?B?B???
???@9?
@???
@9h?
@9??
@???
?V?;?j??R?
@????r?
????
?B?h
@???
T?OG?
?WF???D??/@??#@??
_?!?????
?R??
?!?B?B?B?{?
?!?????
?Rp?
?!?B?B?B?g?
???@9?
@?C?
@9h?
@9??
@?;?
?V?;?j??R?
@????r?
T?OG?
?WF???D??/@??#@??
_?!?????
?!?B?B?B?
?!?????
?R??
?!?B?B?B???
???@9?
@???
@9h?
@9??
@???
?V?;?j??R?
@????r?
????
?B?h
@???
T?OG?
?WF???D??/@??#@??
_?!?????
?R??
?!?B?B?B???
?!?????
?Rx?
?!?B?B?B?o?
???@9?
@?K?
@9h?
@9??
@?C?
?V?;?j??R?
@????r?
@??S
??!?
??C@9?
@???_?
T?OH??WG??{E??3@??C
_?!?????
?!?B?B?B?
?!?????
#??C
?R??
?!?B?B?B???
7?C@9h
_???
??C@9h?
??C@9??
@???
?V?;?j??R?
@????r?
???S
?B?h
??C@9?
?=??
@???_?
T?OH??WG??{E??3@??C
_?!?????
?R??
?!?B?B?B???
?!?????
#??C
?R??
?!?B?B?B?y?
7?C@9h
_?U?
??C@9h?
??C@9??
@?M?
?W?;??3
@?4,
K*??R)}
*???J!
SJYi?_
k???
?|??
@?u?
@???_?
T?OE??WD??{B??
@???
?W?;??
@?4P
K*??R)}
*???J?
SJYi?_
????
?|??
@?u?
@???_?
T?OE??WD??{B??
@???
?W?;??
@?4P
K*??R)}
*???J?
SJYi?_
????
?|??
@?u?
@???_?
T?OE??WD??{B??
@???
?W?;??3
?|??
@?t?
@???_?
T?OE??WD??{B??
@???
?W?;??
?|??
@?t?
@???_?
T?OE??WD??{B??
@???
?W?;??
?|??
@?t?
@???_?
T?OE??WD??{B??
@???
?U?;??3
@?3,
K*??R)}
*???J!
SJYi?_
k???
???|??
?~???~???
@???
(???)???,???.???K?{??3
??=?
?!y?=?
??M?=?
??q?=?
?N??
N?A??? 
N?I>?? 
??E??
??T_
????T?
@???_?
T?OE??WD??{B??
@???
?U?;??
@?3P
K*??R)}
*???J?
SJYi?_
????
???|??
?~???~?^?
@???
(???)???,???.???K?{??
??=?
?!y?=?
??M?=?
??q?=?
?N??
N?A??? 
N?I>?? 
??E??
??T_
????T?
@???_?
T?OE??WD??{B??
@???
?U?;??
@?3P
K*??R)}
*???J?
SJYi?_
????
???|??
?~???~???
@???
(???)???,???.???K?{??
??=?
?!y?=?
??M?=?
??q?=?
?N??
N?A??? 
N?I>?? 
??E??
??T_
????T?
@???_?
T?OE??WD??{B??
@???
?U?;??3
???|??
?~???~???
@???
(???)???,???.???K?{??3
??=?
?!y?=?
??M?=?
??q?=?
?N??
N?A??? 
N?I>?? 
??E??
??T_
????T?
@???_?
T?OE??WD??{B??
@???
?U?;??
???|??
?~???~?%?
@???
(???)???,???.???K?{??
??=?
?!y?=?
??M?=?
??q?=?
?N??
N?A??? 
N?I>?? 
??E??
??T_
????T?
@???_?
T?OE??WD??{B??
@???
?U?;??
???|??
?~???~???
@???
(???)???,???.???K?{??
??=?
?!y?=?
??M?=?
??q?=?
?N??
N?A??? 
N?I>?? 
??E??
??T_
????T?
@???_?
T?OE??WD??{B??
@???
?U?;??
????
??{?
????T?
9???
i88?
????
@?+?A??
@??i(8?
T?OF??WE??_D??{C??
@???
_?A?
@???
?U?;??
????
#???
????T?
9???
i88?
????
@?+?A??
@??i(8?
T?OF??WE??_D??{C??
@???
@?[?
?=U?;??
@??C
????
?R??
??C@9?
????
??C@9?
????T?
9???
i88?C@9?
????
?C@9?
@?+?A??
@??i(8?
@???_?
T?OF??WE??_D??{C???
??C@9h
?U?;?
?(????
e?=?
?R??
@?4????
~???
????T?
9???
y8??
????
@?+?A??
@??y(??
T?OF??WE??_D??{C??
@???
_??~
?????
?U?;?
?(????
e?=?
?R7?
@94????
~???
????T?
9???
y8??
????
@?+?A??
@??y(??
T?OF??WE??_D??{C??
@???
_?o~
T????
@??~
?=U?;??
?(????
e?=?
?R??
??C@94????
~???
??C@9?
?=.?
??C@9?
????T?
9???
y8??C@9?
????
?C@9?
@?+?A??
@??y(??
@???_?
T?OF??WE??_D??{C???
_??}
?C@9?
?????
??C@9h
@?r~
??{???
@??{???#
_??#
??{???
@??{???#
_??#
?X?;??
??8?
@???_?
T?OG??WF??_E??{C??#@??
????C
?R-?
?!?B?B?B?$?
????C
?!?B?B?B?
??C@9h
@??}
??{???
???A?
k68?
?Ri*@?h
@9)?
?A?a
?|??
@?v?
????????
??j(8?OD??WC??_B??
@??{???#
@??}
?X?;?*
??m?
?B??
@???_?
T?OG??WF??_E??{C??#@??
????C
?f???
?Ra?
?!?B?B?B?X?
????C
?R???
?RM?
?!?B?B?B?D?
??C@9h
@?$}
 ?R?
*???r
???RKs?r
(???
YjxJ
y+??R
??R?6?rn??R*
?+}??@!
?k?m?m=
?R?}
Ylx??
k=@?
Ymx)=@?
ykxL
yixM
_?_$
_?(??R
H?R?6?r?
k(|??
?m?(???
S_?0q?
Si??R*?????
?RJA
)=@??
TIyix
_????R
Sk??RJ}
?RJ}
?Rk=@?
(???
YaxH
YixJ
KYhx?
?RIyix
_????R*
k=?r?
?R+}??k?e?k?
Yjx?
??Rl??R
?Rk}
Ykx)=@?
yixK
_?_$
 ?R?
????r
*???
??{???
?)???I???i
?{???*??Ri~@??6?rl??R?
??R)?m?+=
-???i?
S)=@??Ykx??
?YlxJ=@??yix
y?yjx
?(???
Sm??R
?R?}
k=@?,
ykxk
ykxK
Ylxk=@?,
ykx?
??-??R?6?r
??R?
?R?}@???
?n??RM}??k?m?q=
S??m?l?
k=@???
?=@??=@?
YoxJ=@?
Yqx A
ylx/
ymx0
Ynx1
yjx+
@??{???#
_?_$
_?_$
 ?_$
_??#
??{???
?{???#
_?_$
_??#
??{???
?W?;??
@??#
??R'?
????6 ??
?|??
@?u?
j58?
@???_?
??OD??WC??_B??
@??{???#
_??#
??{???
?R?z
???Ju<??M?R`
??{???#
@??{???#
????
??{???
??{???#
??4)
????
?6??
_??#
??{???
?R~z
???J]
}?=A
??{???#
@??{???#
?\??
??{A??
???_??
@????
??_????
??_????
??{???
??{???#
??4)
????
?V?;??
????
?!?!?
????@??
?A?a
@??z
@???_?
T?OD??WC??{B??C
_??y
@?tz
?T?;??
@??#
???>??
???@9h
@?Zz
??#@9h
@?Vz
?B????<
@???_?
T?OF??{E???
_??y
???@9?
7?#@9h
@?=z
??#@9h?
??#@9??
@?5z
?X?;??
???>??z
@??#
?|??
??j58??
???@9h
??#@9h
@??y
?B????<
@???_?
T?OH??WG??_F??{E??C
_??#
???@9?
7?#@9h
@??y
??#@9h?
??#@9??
@??y
?T?;??
@???
???>??
???@9h
@??y
??#@9h
@??y
?B????<
@???_?
T?OF??{E???
_? y
???@9?
7?#@9h
@??y
??#@9h?
??#@9??
@??y
?V?;??
_?}y
??#@9h
@?yy
?B??
@???_?
T?OG??WF??{E??
_??x
7?#@9h
_?_y
??#@9h?
??#@9??
@?Wy
?Z?;??
@??#
?|??
k78??
??#@9h
?B??
@???_?
T?OI??WH??_G??gF??{E???
_??#
7?#@9h
_??x
??#@9h?
??#@9??
@??x
?V?;??
@???
_??x
??#@9h
@??x
?B??
@???_?
T?OG??WF??{E??
_?8x
7?#@9h
_??x
??#@9h?
??#@9??
@??x
??{???
@??{???#
??{???
?!|A?BpA??|
? ??4)
????
_?_$
 ?_$
???9??
????
?S?;?h
@???
??????C
??R??
???>???=?@
@???=??
@???_?
T?OP??{O??C
_??w
??{???
??{???#
??{???
@??{???#
???!?%??w
??{???
@??{???#
?R????!?!??w
??{???
?{???#
_?m????#
?S?;?h
@???
TjJ??
?I?j
??)}??????????)?K?(!
??Th
@???_?
T?{B??
_?Yw
??{???
??{???#
????4`
????
??{???
?!?%?d
5?{???#
_?????!?
??{???W
??????
@?Y~
A??z
?a??TuZ@??
@?({
???@??{
?a??T?
??OB??WA??{???#
?OB??WA??{???#
?????_$
_?_$
_??#
??{???
 B??
?8?D?
?+?|?K
???|?
?C?_
?)1??
??(1??
?|??
?v?A?
@??OD??WC??_B??{???#
?OD??WC??_B??
@??{???#
_??y
??{???
?@??
?U?C??
?}??
?I?B???}??
1??_
1???
???}?jv
??"@?
?H?C?
@??^
@??OC??WB??{???#
??{???
?RFv
?=?{???#
_??#
??{???
?.????
@??{???#
@??{???#
_?_$
@?a??
@????
??{???O
????
??OA??{???#
_?_$
_??#
??{???
T)????
+ih8J
?R?u
?????
???)E9?`
]?=!
?()@?
?R?u
???)m,?`
?="??<a
??<1
?R?u
?????
???)1
m?= 
?(!@?!
?R?u
?????
???)
?=#??<
?R?u
???)E
??=?
9?{???#
_??#
??{???
??{???#
????4s
dA??u
????
?T?;??
@??c
@?%v
!A????<
@???_?
T?OD??{C??C
_??u
??{???
@??{???#
?U?;?
???A9
??r@??
T?OC??WB??{A??
??{???
?R?y
?!(A?B$A??y
?@??4u
dA??t
????
?U?;?
???A9H
??r@?
@?g|
T?OC??WB??{A??
?R?????t
?V?;?
???A9h
??r@??
T?OD??WC??{A??
@??C
?Rr????t
?V?;?
???A9h
T?OD??WC??{A??
@??C
?R?????t
??{???O
?hr@?`
??OA??{???#
?U?;?
?hr@?H
?h?A9??
???C
A?2x
???@9h
@?u{
@???_?
T?OE??{C??#@???
_??#
???@9h
@?^{
??{???
p@?H
?h?A9??
6?OB??
@??{???#
?"@9hr
@?A{
@??"
@??OB?
@??{???#
??? 
?R!?,?<t
?U?;?
?hr@?H
?h?A9??
6?C@9?
@???_?
T?OD??{B??
@??C
_??s
??{???
?R?????#
??{???O
???A9h
??r@??
??OA??{???#
?Rm????
??{???
??{???#
_??#
??{???O
??OA??{???#
??{???
?Ras
-A?`
??{???#
_??#
?U?;??
@???
?A9?
?R??>???
???@9h
6?#@??s
!A????<
????<?
@???_?
T?OH??{F??;@??C
?`??4@
dA??r
????
???????@9?
6?#@??s
??????
??????#
??{???
?!(A?B$A??w
??OB??
@??{???#
_??????#
??{???O
???A9?
??r@??
??OA??{???#
?R???? 
?R?????
??{???
??{???#
?Rx????#
?T?;??
T?OB??{A???
?R\????r
??{???
??{???#
?RL????#
?T?;??
T?OB??{A???
?R0???qr
??{???
??{???#
_??#
??{???O
??OA??{???#
_??#
??{???O
??OA??{???#
??{???O
??OA??{???#
??{???
@??{???#
??{???
?-????#
??{???
?????_$
_?_$
_?_$
?ie??
@?i???????i
???!H??
_??#
??{???O
?|??
??OA??{???#
_?9v
??{???
??{???#
??{???
?R?V
??{???#
_? v
??{???_
??N9?
?RJ!0??
`??he???????i??
_??#
??{???
??%`
Th?[?h
??`?
@??{???#
_?`?\??
??{???
?_??
_??#
??{???O
@??y
?he??i?
?h???????h
Th?]?
Qh?_?
??OA??
??{???#
_??u
??{???O
?ie??i???
F?????i
???!H??
Th:@?(
?h?A9
???_
??OA??{???#
?C??Th
@????
??{???
???_
Th?Y?h
@??{???#
_?Jy
??{???
?je??
1@?j???????j
??_!I?a
??{???#
_??#
??{???
`??ue??????h
F??i??
?x??
T?:@?
???x??
Ti?]??
q*U?Z
@?????
?A??T?
??{???
?R:_
??{???#
_??#
??{???
?je??
1@?j???????j
??_!I?a
@??{???#
_??x
??{???W
?RjU
`????
?ve??????
?=?i??
?R?^
@??x
???x?
Th:@?
??OB??WA??{???#
_??t
??{???O
Tt?Z??
???^
T??Y?h
??OA??{???#
`?\?<
??{???
?{???#
_?^x
??{???
@??{???#
_?Tx
??{???
?#?bx
??{???#
_??#
??{???
?#?Yx
??{???#
_??#
??{???
?R?p
????
?R?p
@??OC??WB??{???#
_?????????
?????????
?????
?????
?????????
??????#
??{???
5?OB??
@??{???#
_?????????
?????????
?????????
L;?!x
?k????#
??{???O
5?OA??{???#
_?????????
?!?:?
?????????
?!?:?
?????????
L;?!?:?
?B????#
??W???
??_>???
???:??#
???9??C
???;??t
???[??w
??????
???????[?!?:?@
?R?w
????
_??#
??O??bw
???@?
??????????#
??{???
??????
??????#
??{???
???????_$
????
_??#
??{???
??????
?????,s
?????
?7??????
??????????#
??{???
?!?B?>]
??{???#
_?_$
????
_??#
??{???
?????
?o?????
?????`
?????(`??he???????i??
?????
?D?\????
??R?3
???_?h
?D?(
?????
?-??
?9???H
?????
?)??
?D?3????#
??{???
?????H
??{???
??!?B??\
??{???#
_??#
??{???
??!?B??\
??{???#
_??#
??{???o
@???
?W?;??
@???
????<???<??
????<`??< 
?`??<`??<?
?`??<`??< 
?R`??<`??<`??<`??<`??<`??<`
?=`?
?=`??=??
???c
@9?i
??3E??
T??I??
??????H
?R??
???@??
??/@??+
??#E?
???I??
?`??T?p
???I?@?????A??
??wA??
??KA?
???@??
??3@?
@???^?
@???
??OE??WD??_C??gB??oA??{???#
@9?}
@9?i
??#E?
@9?}
@9??
@9??
@9??
@9??
@9??
@9?}
@9??
TI!@9??
TI%@9??
TI)@9??
TI-@9??
TI1@9??
@9J?
q???T?
qa??T?
??T?
q???T?
?R???
@8??
1H??TJ
@9??
??????C
?????u
??R?p
@???
???&@9
@???
???+C?
?!1???
h(8t
@?S???"??
????
?v???
??{???O
?I?t?
?`?I??
?A??T?
?`???`jA?h?
?`NA?h?
?`"A?hb
?`?@?h
@?h?
T?OA??{???#
?OA??{???#
_??#
?W?;??
@???
$@??
@9_Q
???kY
myjx?
Th&@?
@9?}
hnA???
?ijA??
?C??
?jnA?hjA??
?J?C??
TkNA?lRA?
yi??=@??
??yn?_
yo??A@??
??c??T?
?i"@?
@9l?
?R?!??-
@9_?
@9_?
@9_?
@9_?
@9_?
@9_?
@9_?
T*!@9_?
T*%@9_}
T*)@9_?
T*-@9_?
T*1@9_%
@?)5
?U?C??
?i"@??
????T???
@9?I
?u?I??
??????
?R:o
??"?R
?* ?r?
?????
@???_?
T?OI??WH??_G??gF??{E???
??????
? ?????
????
?????j"@??
@9??
????
?????
????
???????
????
?@?????
????
???????
????
???????
????
?????????
?!h-??
????
??????
???????
?y??
????TI
@8??
q???T?
?a??T???4u?I??
??????
?R{n
??"?R
?* ?r?
?????
?M??
A???}?)
?????h&@??
~??"
@9??
???&??(
?C??
??????C
?h&@??
qh??T(#??
??Th
?}??
????
@9)?
@8k?
1H??T!
_??#
??{???W
?I??
??????(
?R?m
??"?Rk?
@?) ?rj
??OB??WA??{???#
_??n
?T?;??
@???
$@??
????a
?ylx?
?R(!??)
??)`??
?u?I?h
A??????
?Rym
?? ?R
?"?* ?r?
?????
?u?I?h
A??????
?R^m
?? ?R
?"?* ?r?
?????
?u?I?h
A??????
?RCm
?? ?R
?"?* ?r?
?????
?u?I?h
A??????
?R(m
?? ?R
?"?* ?r?
?????
} ?j
?u?I?h
A??????
?? ?R
?"?* ?r?
?????
?R(!?
?h"L9?
4h&@??
?u?I?h
A??????
?R?l
?? ?R
?"?* ?r?
?????
?u?I?h
A??????
?R?l
?? ?R
?"?* ?r?
?????
?u?I?h
A??????
?R?l
?? ?R
?"?* ?r?
?????
?u?I?h
A??????
?R?l
?? ?R
?"?* ?r?
?????
@9*?
??????
???J1
Lyixk
?y????
?k????
?g????
?[????
?u?I?h
A??????
?? ?R
?"?* ?r?
?????
?u?I?h
A??????
?R?k
?? ?R
?"?* ?r?
?????
?u?I?h
A??????
?R?k
?? ?R
?"?* ?r?
?????
?u?I?h
A??????
?R?k
?? ?R
?"?* ?r?
?????
?u?I?h
A??????
?R?k
?? ?R
?"?* ?r?
?????
?u?I?h
A??????
?Ryk
?? ?R
?"?* ?r?
?????
?u?I?h
A??????
?R_k
?? ?R
?"?* ?r?
?????
?u?I?h
A??????
?RDk
?? ?R
?"?* ?r?
?????
?u?I?h
A??????
?R)k
?? ?R
?"?* ?r?
?????
@9J?
?m?_8
q???Tk
?3????
????
?'????
????
?u?I?h
A??????
?R?j
?? ?R
?"?* ?r?
?????
?u?I?h
A??????
?R?j
?? ?R
?"?* ?r?
?????
@???_?
T?OE??{C??#@???
_??$
?u?I?h
A??????
?R?j
?? ?R
?"?* ?r?
?????
????
?`???h&@?
@9?}
*b????
?h&@??
@9?}
??????
??????C
?Q??
?O??
???h"L9???4h&@??
?`??T
??T?
?`????C
?:??
?+??
????
????
? ??
?????
?}??
?????
?!?#?$
?????
?!D)?
?????
?!? ??
?k??
?????!4&?
?????!?8?h
?^??
?????
?????!D3?h
?Q??
?2????
?@????C
????
?????!T%?h
?=??
?????
?5??
????
?X?;??
 @?_
@9?1
?h&@??
9t?I??
A??????
?R?i
?Ja???$?R+ ?r?
?V????
@9??
?????`
?h&@??
@9_I
?w?I??
A??????
??$?R
?* ?r?
?K??
?R?"
?u?I?h
A??????
?R?h
?J?"?? ?R?
?????)?
?+ ?r
????"?Ru?
?Zc$???
?8 ?r
?{Z@?
q`??T?
?kh8)
@??#
??"@9
Tz?I?H
???????
?R|h
a1?I
?Zc$??
%?R( ?r?b
@9?"?R8 ?r
@9*?
?r????
?{?I?h
A??????
?RCh
?v?I??
A??????
?R*h
?)a??
??$?R
?) ?r
?y?I?(
A??????
? ???|
?y?I?(
A??????
?R?g
????T?#
?"?R?
@98 ?r?
9{?I?h
A??????
?R?g
!3?K%?Ri
?+ ?r?
?(A??
?R?g
????
?t??????
?i?R??
@???_?
??OG??WF??_E??gD??oC??{B??
??????
?????`
@??5
????
?4???h&@?
????T
@9?}
q!??T
?e????
? ??????
?V?;??
$@?*
?h&@?
?O????
T?OD??WC??{A??
@??C
@9?i
????? ??????
?U?C?
??????
?`????
?h&@?
????T???
????
????
A???}?
?w?I?h
A??????
?R?f
?*$?R
?* ?r?
????
??{???
?@??
?7?A?
???C???B??
@??WB?i
@??OC?
??{???#
_?\g
??{???
?I??
A??????(
?R~f
?)!?R`
?=) ?r?OB?
?=?{???#
_?8g
??{???g
?I??
?>?????(
?RSf
??OD?
??WC?
?=?_B?
??gA?
9?{???#
??{???
?I??
??????(
?R$f
??"?R
?* ?r?
@??OB?
??????
??{???#
_??f
??{???
?I??
??????(
?R?e
??"?R
?* ?r?
@??OB?
??????
??{???#
_??f
??{???
?I??
??????(
?R?e
??"?R
?* ?r?
@??OB?
??????
??{???#
_??f
??{???
?I??
??????(
?R?e
??"?R
?* ?r?
@??OB?
??????
??{???#
_?bf
@9_?
@8??
@9_?
@8??
@9k?
@8??
??T???
_??#
??{???
?I??
??????(
??"?R
?* ?r?
@??OB?
??????
??{???#
_??e
??{???W
?I??
A??????(
?R?d
??"?RJ? ??
@??OB?+ ?r?WA?
??{???#
_??e
??{???
?I??
??????(
?R?d
??"?R
?* ?r?
@??OB?
??????
??{???#
_?ue
??{???
?I??
??????(
?R?d
??"?R
?* ?r?
@??OB?
??????
??{???#
_?Me
??{???
?I??
??????(
?Rod
??"?R
?* ?r?
@??OB?
??????
??{???#
_?%e
_?_$
_?_$
_?_$
_??#
??{???W
 A??
Th?@?
?!1??a
???&@9
T?OB??WA??{???#
??OB??WA?
@??{???#
_?_$
_?_$
??{???
?(?@??
?!1??a
@?????
???&@9
??h?@?
?!1??a
@??%?R?
????r
h(?h
???&@9
T?OB??
@??{???#
@??OB?
@??{???#
?V?;??
 @?_
@9?M
@9l?
Th?R?J
T????)?
,ih8k
?u?I?h
@?(???
????
?Rwc
f?R?
??OC??WB??{A??
_??$
?u?I?h
@?(???
????
?RSc
f?Rj
?u?I?h
@?(???
???H
?RDc
f?Rj
?u?I?h
@?(???
????
?R5c
f?Rj
?u?I?h
@?(???
???H
?R&c
f?Rj
?u?I?h
@?(???
????
f?Rj
?+%?R)!:?+ ?r?
??T?
?@????
????
?`??T)}
??TJ
?@??TH
q???Th?R?J
yi?o??
?R???
?R???
*???
?R???
?R???
?R???
?J?;?H
@???
@9?%
6hNA?i
?h"A?h&
??*????
?C??
?h&@?
6hNA??[
TiRA?wN
?jVA?wR
?K????
????????
hRA?
?Rba
?iRA?hNA??
?)?C?
?0????
?`NA?
T??C??
?jVA?hR
??C??[
??'C?jNA?)
?)?C?
?u???
#@9?
Tz?I?
gA?H
A??????
?R%b
?J@?R-
?)?;?
9)?}?
?l?@??)@9?
?a??T
?l?@??-@9?
?a??T
???@?J%@9_
?a??T
?hRA???
?_?s
? ??T?
?N??
?V?}?!
?v?I?h
A??????
?R?a
?j$?R
?=?* ?r?
@???_?
T?OL??WK??_J??gI??oH??{G??C
_??b
??{???W
?I??
A??????(
?R?a
??$?RJa???
@??OB?+ ?r?WA?
??{???#
_?Tb
?X?;?
@9?Q
@9?1
@9)?
???_8
TM?_8??
qc??T?
TK?_8
?j&L9h
?v?I??
??????
?R6a
??D?R
!&?J@?r?
9hnA?irA?
TwjA?
@9k?
???_8_
@8??
q???T_
????
??OD??WC??_B??{A??C
_?hRA?jNA?
?C??
TJyi??
?J-@?k
TTyu????
j?A??
?a??T?
?(??T?
?u?I??
A??????
?R?`
?? ?R
?"?* ?r?
??????
????
???B???C??
????
??{???
?i"@??
Tu?I??
?>?_???
?R~`
?????
?&?J?%??
??&?R) ?r
?????
??OB??
@??{???#
_?/a
??{???g
 @??
?R??4?
?k.@9I
?h?@xX?
x?"@?K-
@9J?
?+?_8
@8k?
q???T8
T??I?H
??????h??T
????
??T?
??OD??WC??_B??gA??{???#
_??`
?V?;??
$@?)
@9_U
???h&@?
????T
q???Ti
A???}?
?w?I?h
A??????
?R?_
??%?R
?6?* ?r?
?:????
??OD??WC??{A??
@??C
_?V`
??{???
T(?@??
?!1??a
??OB??
@??{???#
_?0`
_?_$
??{???
???&@9
??h?@?
?!1??a
@?IG?R?
h(xh
???&@9
T?OB??
@??{???#
@??OB?
@??{???#
??{???
?@??
?7?A?
???C???B??
@??WB?i
@??OC?
??{???#
_??_
??{???
?I??
A??????(
?R?^
?? ?R)?"?( ?r?
??OB??{???#
_??_
??{???
?@9h
$@9i?
?{???#
??{???
?@9h
(@9i?
?{???#
??{???
?@9h
,@9i?
?{???#
??{???
?@9(
@?h?
@??{???#
??{???
?@9(
@?h?
@??{???#
??{???
?@9(
@?h?
@??{???#
?U?;??
@???
$@?*
@???_?
T?OE??WD??{C???
@9??
8???T
T?????
?ylx?
????
qH??T????J?%????
Lyixk
?????!?
q(??T????J9
????
Lyixk
?????~
????
?=??????
q???T????JQ'????
Lyixk
?????!?.?W
q???T????J?&?k??
Lyixk
??????
? ????
?y????
??????#
????
@9?=
q???T
?????!D#?
@9??
?e??
@9??
q???T
?????!H
@9_?
q???T
?C????
??????
??????
?`????#
?F??
??T????J?$????
Lyixk
?????!?(??
q???T????J?"????
Lyixk
?%??
q???T????J?!????
Lyixk
?????!L#??
q???T????k?
?l??
myjx?
?V?C?
??????
??????#
?J???h&@?
????T???
qH??T????kq#????
myjx?
?????!?
q(??T????ka ????
myjx?
?????!?
@9??
q!??T
??????
??????
??????
????
??????
??????#
????
??T????J)
????
Lyixk
?????!
?#??T
q???T
@9??
qa??T
@9?}
@9?}
@9??
@9??
@9??
@9??
!@9??
%@9??
)@9??
??????
?y??
?????!?
?V?C?
??????#
?????h&@?
????T???
?????!?
?????!?
?????!
?????!?6?
?????!4
?????!?
?????!?
??????
?????????!T
?{????
??????
??&??(
?C?h&@?
??????#
?q??????
?????
?!?"??
??????
?`????#
??????
????
??&??(
?C?h&@?
??????
?@????#
?E??????
?????!?#??
?????!?
????
?????!?#??
?????!(
?????!?
@9?}
?????!?%?Q
?????!?
????
? ????
??????
??????#
????
?????!
?????!?*?a
?????!T>?\
?????!(
?????!$<??
??????
????#
????
?????!X#?"
?????!?.?"
@9?}
?????!<
?????!X#??
?Z????
??????
?V????
?@???????B?.??
A???}?
@???
?O??
?????!?
?????
?????
?????!?
?????
? ????
??????????#
?!?;??
?&??
qa??T?
??????
????#
?\????
??????
??????
? ????#
??????
??????#
????
?A???
??????
?????????!?.??#
????
@9?}
qA??T
@9??
q???T
@9??
q???T
@9??
q!??T
@9??
q???T
!@9??
qa??T
%@9??
)@9??
q???T
??????
????#
????
??????
???????B?%?c
??????
?????(
?R?c
??????
??????
??????
????#
????
?????!?
????
??????
?`????c
????
?y????
??????
?u????
? ???????B|
?z??
?g????
?`????
?c????
??????#
?j??
?????!?"?"
?a??
?Q????
?????????B<
?W??
A???}?
@???
A???}?
@???
?7??
A???}?
@???
?'??
?`????#
??{???W
?I??
?>?????(
?R!Z
??&?R)?&?( ?r?
??????
?%??&
??OB??"
??WA??{???#
_??Z
?T?;??
@???
@9_1
T?????
???(??
?ykx?
????
?h&@?
????
?i"@?
@9J?
@8??
??Tk
????
????
?????!?
@9??
T????
?h&@?
@9?i
?Y????,
?h&@?
?????!?
@9??
?????!X<?"
@9K?
@9K?
@9K?
@9K?
@9K?
@9K?
!@9K?
%@9K?
?w?I?h
A??????
?R?X
??(?R
a+?&
?????!?;?"4
?????!4 ??
?????!l<?
?????!D
?????!?
?????!0
?????!x8?"
?????!?
@9l?
@9l?
@9l?
@9l?
@9l?
@9l?
!@9K?
%@9K?
)@9K?
-@9K?
1@9K?
5@9K?
9@9K?
=@9K?
A@9K?
E@9K?
?v?I?h
A??????
?R X
??(?R
!-?* ?r?
@???_?
T?OF??WE??{C??#@???
_??$
?????!
?????!?*?"D
?????
????
??jj8l?
1b?F:???TJ
????T?
??T?
q???T
?w?I?h
A??????
?R?W
?.?* ?r?
????
q!??T
????
??{???W
@9_?
@9_?
@9?Y
@9?-
@9)?
@9_?
@9_1
@9k?
T,?_8??
1???T?
@8k?
??TU
T*?_8_?
@9_?
@9?Y
@9?-
@9)?
Tv?I?)
A??_???H
?j'?R
?* ?r?
@8k?
??TU
????T?
??OB??WA??{???#
_??W
??{???
@9_?
@9?z
@9)?
T????J?*??
Lii8k
T????????J},???
Lii8k
???????.??
@9??
T??????#??
@9?Y
T??????"??
@9?=
T??????
@9??
T??????
T????????J?+??
Lii8k
???????(??
T????????Je+??*
Lii8k
???????
@9??
T?????V>?p
@9?I
T??????
@9?1
T?????Z#??
??OD??WC??_B??
@??{???#
_??$
qh??T????????J?*??
????
Lii8k
??????
?????J
??????
??????
?????~
??????
?????F#??
?????N#?(
??????
???????
???????
???????6?
??????6
???????#?
???????
???????
???????*??
?????@????
?????@????
?y?I?(
?>?????
?R?U
??'?R
?* ?r)
9{??
??{???_
??????
????? 
???I??
??????
?R?U
??%?R
?* ?r
??OC??WB??_A??{???#
_?eV
??{???
?k??? 
???I??
??????
?R?U
?J'?R
?* ?r?
??OC??WB??
@??{???#
_?;V
??{???W
?I??
??????(
?R\U
??&?R?OB?
?????) ?r
??WA?
??{???#
??{???W
?I??
??????(
?R2U
??&?R`
?=) ?r?OB?
??WA?
??<?{???#
_??U
?W?;??
$@?)
@9??
@9??
?;????
??"@??
@9_}
?V?C??
??????
?(????"@??
????T???
T?OD??WC??_B??{A??C
??????
?@?????I??
???????
?R?T
???I??
??????
?R?T
??'?R
?* ?r?
????
A???}?)
???I??
??????
?R?T
??'?R
?* ?r
????
??{???
?I??
A??????(
?RmT
@9,'?R?
??OC?, ?r)!
??WB??
9?{???#
_?"U
??{???W
?I??
??????(
?RCT
??&?R?OB?
?????) ?r
??WA?
??{???#
_??T
?W?;??
@???
$@?*
@9_?
@9_?
@9_9
?h&@??
*3????
?v?I??
A??????
?R?S
?Ja???$?R+ ?r?
??"?R?
?6 ?r
@9_?
@???_?
?h&@?
?z?I?H
A??????h??T
?R?S
??????
@9_?
@9_?
?h&@??
*?????
??????
?t?I??
A??????
?RxS
??$?R
?+ ?r?
??$?R?"?R?
?8 ?r9 ?rZ?
?|?I??
A??????
?RMS
4|?I??
A??????
?R7S
?h&@?
????T
qA??T
?x?I??
A??????
??"?R
?* ?r
?y?I??
A??????
?R?R
??"?R( ?r)
????
@???_?
??OG??WF??_E??gD??oC??{B??
_??S
??{???
?I??
??????(
?R?R
?i&?RJ?
@?) ?r?
??OC??"
??WB??{???#
_?yS
??{???W
?I??
??????(
?R?R
?k&?R?
@?+ ?rj
??OB?
?????
?)?"??WA?+
??{???#
_?OS
??{???W
?I??
A??????(
?RpR
&?RJa
@??OB?+ ?r?WA?
??{???#
_?)S
??{???
$@??
@9_?
@??OC??WB??{???#
?$??
@9?a
qa??T
?????@
?v?I??
??????
?R,R
?*)?R
?* ?r?
??????
?????
??????
?w?I??
??????
?J)?R
?* ?r?
??????
?????@
?v?I??
??????
?R?Q
?*)?R
?* ?r?
9?OC??WB??
@??{???#
_??R
??{???
?I??
??????(
?R?Q
?!??
??'?R`
?=) ?r?OB?
??<?{???#
_?wR
??{???W
?I??
??????(
?R?Q
?(&?RJa#?( ?ri
??OB??WA??{???#
_?MR
?Y?;?(
@9_?
?T?C??
?&????
?????i"@??
????T???
A???}?)
?j????
?i"@??
@9_?
@9_?
Tk*A?)
?X?C??
??????
?V???i"@??
????T???
?w?I?h
?>?????
!%?* ?r?
T?OF??WE??_D??gC??oB??{A???
?}?)
?|?I?h
?>?????
?R?P
!%?* ?r?
????
??{???
?I??
?>?????(
?R?P
?)?&?
@??&?R?OB?
??????
?)-<?* ?r()
?????
??{???#
_?[Q
??{???
?I??
??????(
?RzP
@?L&?R?
??OC?, ?r)?(??WB??
??{???#
_?0Q
??{???W
?I??
??????(
?RQP
??&?R?OB?
?????) ?r
??WA?
??{???#
??{???W
?I??
??????(
?R'P
??&?R?OB?
?????) ?r
??WA?
??{???#
_??P
??{???
?I??
A??????(
?R?O
?J$?R* ?r
??OB?
??{???#
_??P
??{???W
?I??
?>?????(
?R?O
??&?R)?&?( ?r?
??????
?%??&
??OB??"
??WA??{???#
_??P
??{???
?I??
A??????(
?R?O
?)a*?
??&?R* ?r
??OB?
??{???#
_?fP
??{???
?I??
?>?????(
?R?O
?)?&?
@??&?R?OB?
??????
?* ?r(-
?????
??{???#
_?:P
??{???
?I??
A??????(
?R\O
!,??
 ?R`
?=) ?r?OB?
?=?{???#
??{???W
?I??
??????(
?R7O
?!??
??'?R`
?=) ?r?OB?
??WA?
??<?{???#
_??O
??{???
?I??
A??????(
?? ?R)?"?( ?r?
??OB??{???#
_??O
??{???
?I??
A??????(
?R?N
?)?-?
??'?R* ?r
??OB?
??{???#
_??O
??{???
?I??
A??????(
?R?N
?)?/?
(?R* ?r
??OB?
??{???#
_??O
??{???_
$@??
@9J?
@8k?
??TW
T??I?
??_???
?RrN
??(?R)?'?* ?r
??OC??WB??_A??{???#
_?)O
??{???
?I??
???????(
?RKN
?J?)?
q)(?R?OB?
?) ?r?
9?{???#
??{???
?I??
A??????(
?R%N
?)?0?
?J(?R* ?r
??OB?
??{???#
_??N
??{???
?I??
A??????(
?? ?R)?"?( ?r?
??OB??{???#
_??N
?Y?;??
@???
?hNA?hR
?j"@?
@9?U
@9??
@9k?
hRA??C
?iNA?J
?z?A?`b
?C??#
????<???<???<???<?
??????
@?h&@??
T??????6?
?R9J
?h&@??
?????h&@??
?A??Th
@9k?
@8J?
1H??T)
?t?I?h
A??????
?R_M
?? ?R
?"?* ?r?
?????
?)?C?7?}?
?hRA?
?????a
`#??I
?h&@?)
?l????
?p???h&@?
????T
q???T
??????
?ka#?l
k!??Tk
?!??T
?i?@??
@9J?
@8k?
1H??TT
@8k?
1H??T\
?v?I?h
A??????
?R?L
??%?R
a2?* ?r?
@???_?
??OM??WL??_K??gJ??oI??{H???
@9?}
?z?I?h
?>??????
?R?L
??'A??
????
??%?R
?<?* ?rI
????
?'A??
??{???
?I??
A??????(
?RlL
?)?>?
?j(?R* ?r
??OB?
??{???#
_?&M
??{???W
?I??
??????(
?RGL
??(?R`
?=) ?r?OB?
??WA?
??<?{???#
_??L
??{???
 A??
Th?@?
?!1??a
h(8h
??&A?5
?!1??a
?!1??a
h(8h
?????
?????
?!1??a
h(8?&B??
?!1??a
??"A?
Th?@?
?!1??a
??OC??WB??
@??{???#
_?VL
??{???
0@9????????)?
T(?@??
?!1??a
??OB??
@??{???#
_?&L
?U?;??
@???
$A?)
Q@1?
@9?1?
?A1?
?#??T?
@?????c?
4h?@?
?!1??a
@???_?
T?OE??{C??#@???
_??K
9???
????
?S?;?i
???>??
???=?`
@???=?ZH
@???_?
T?OP??{O??C
_?,G
?U?;??
@???
$A?)
f.?4?n?4?n?4?nc
EN?4?n$?
EN%?
??#@9@
?+?_8*?
?#??T
o?????
?R??
?x???
4h?@?
?!1??a
@???_?
T?OF??{D??+@???
_??J
?U?;??
@???
Q?1?
?i+8k
??T?
 ?@L?
fne4?nf4?nd4?np4?nb4?nq4?ng4?nc4?n?
GN&?
cn?? N@?!NaT
9hi)8?
?+?_8*?
?#??T
o?????
?=cl
?????
4h?@?
?!1??a
@???_?
T?OF??{D??+@???
_?ZJ
??{???O
?(?@??
?!1??a
@?I??R?
h(xh
???&@9
??h?@?
?!1??a
@??G?R
h(xh
??OA??{???#
?W?;??
@???
$@?)
@9?Q
T?????
Lii8k
?u?I??
A??????
?j#??
?* ??
!4?*
??*???
?hRA??
?_??
?>????
?x?I??
A??????
?R?H
?7?* ?r
?t"C?
?u?I??
A??????
?R?H
?j#??
?* ??
!4?J
?(+??4
?hRA??
?_?K
?hRA??
?iNA???
?C??
????<?#
A????<???<(
?C????<?
??????????
?RJE
?h&@?)
?a????
????????
k!??Tk
?!??Ti
A???}?
?z?I??
??????
a9?* ?rI
??'A??
????
?v?I??
A??????
?RXH
!;?A
@???_?
??OL??WK??_J??gI??{H??C
_??$
?v?I??
A??????
?R1H
?j#?R
!4?* ?r?
??*???
?hRA??
?_??
?v?I??
A??????
?5?* ?r?
????
????
?'A??
??{???
?I??
A??????(
?R?G
?? ?R)?"?( ?r?
??OB??{???#
_??H
??{???
?(?@??
?!1??a
@?????????)???????
h(?h
??&A?4
?!1??a
?!1??a
h(8h
??OB??{???#
_?OH
??{???
?@??
?7?A?
???C???B??
@??WB?i
@??OC?
??{???#
?U?;??
?????
?????
@????R
?????
?!1??a
@????R
?!1??a
@????RI
?!1??a
?R???Ri
?????J
}??n
???C???
9???T?
?h?@?
h?@?
?!1??a
?!1??a
h(8?
@???_?
T?OD??WC??{B??C
_??G
??{???
?(?@??
?!1??a
@?????
?)?.?
@??{???#
_?ZG
??{???O
???&@9
T?OA??{???#
??OA?
@??{???#
??{???O
$@9?
7h?@?
?!1??a
h(8h
??OA??{???#
??{???
???&@9
??OB?
@??{???#
??{???O
?(?@??
?!1??a
@?????
?R?b
?h?@?
?!1??a
@?????*??R)97?
??OA??{???#
_??F
??{???O
???&@9
T?OA??{???#
??OA?
@??{???#
??{???g
1???
h(x?
yv??
???&@9
????T?
????
?OD??WC??_B??gA??{???#
_?OF
??{???
??h?@?
?!1??a
?R???R
@??{???#
_?*F
??{???W
?(?@??
?!1??a
@??M?R???R
??,?r*??r
??&C?5
?!1??a
?!1??a
??WA?
h(8?
??OB??{???#
??{???O
?!1??a
h(8?B
???h?@?
?!1??a
h(8h
?!1??a
h(8??
?????h?@?
?!1??a
h(8h
??OA??{???#
_?hE
??{???O
?(?@??
?!1??a
@?i??R
h(x?
?}???h
?!1??a
@?j??R
?R???r
??OA??{???#
_?*E
??{???
?(?@??
?!1??a
h(8h
???&@9
??h?@?
?!1??a
h(8h
???A?4
?!1??a
??OB??
@??{???#
_??D
??{???
?(?@??
?!1??a
h(xh
??&A?4
?!1??a
??OB??
@??{???#
_??D
_?_$
?W?;??
?@?*
@???
?!1??a
h(8??@9?
???&@9
??h?@?
?h?@?
?!1??a
h(8?"B?
?!1??a
h(8?"B?
?!1??a
?!1??a
h(8h?@?
?!1??a
@????R?
??&B?4
?!1??a
?!1??a
h(8?#
?h?@?
?!1??a
h(8?
@???_?
T?OE??WD??_C??{B???
_?H?
?!1??a
?!1??a
??R???r
@?????j
?!1??a
h(8?"B?
?!1??a
?!1??a
h(8?
???&@9
q`??T?
??m??
?T?;??
@???
X@???@?
?!1???
?I$?R
h(8?
?) ?r?
@?J?
@?h?@?
?!1??a
h(8?
@???_?
T?OD??WC??{B??C
_??B
??{???g
?7`C)?
???&@9
T????:
?R?2
?R|>
?h?@?
?!1??a
???&@9
q ??T?
?????
?????
?.?P>
?h?@?
?!1??a
@?????
?!?.??
)?OD??WC??_B??gA??{???#
_?^B
??{???W
?A??
T????J?
?!??Th?@?
?!1??a
h(8h
?h?@?
?!1??a
h(8h
???&@9
??h?@?
?!1??a
h(xh
???A?5
?!1??a
?!1??a
h(xh
???&@9
??h?@?
?!1??a
h(8??A?i
T??????
?!??Tj
?!1??a
h(8h
??OB??WA??{???#
??{???W
 A??
?!1??a
?!1??a
h(8h
???&@9
??h?@?
?!1??a
?R?WA?
h(8h
??OB??{???#
_? A
??{???W
 A??
?!1??a
?!1??a
h(8h
??h?@?
?!1??a
h(xh
??h?@?
?!1??a
?R?WA?
h(8h
??OB??{???#
_??@
??{???
???&@9
??h?@?
?!1??a
h(8?b
?????h?@?
?!1??a
h(8h
??OB??{???#
_?j@
??{???
?I?S
?7m|??
??????
T????C
?R{?
?a?C??
??OC??WB??
@??{???#
_?4@
??{???
?(?@??
?!1??a
h(8h
???&@9
??h?@?
?!1??a
h(x?b
?^???h?@?
?!1??a
h(8h
??OB??{???#
_???
??{???O
`@9(
?!1??a
@?IG?R
h(xh
?!1??a
@????R
????R???r
@??f@9(
@?)%
?!1??a
?Rj??R
???&@9
T?OA??{???#
??OA?
@??{???#
?U?;??
$@??
??????
??????
??????
??OC??{A??
_??:
??{???W
??&@??
*????@
???I??
A??????
?RW>
?Ja???$?R+ ?r?
??OB??WA??{???#
??{???W
$@??
@9k?
@9_?
@9_?
?|????
??OB??WA??{???#
????
@9??
?h&@??
*9????
?v?I??
A??????
?R?=
?Ja???$?R+ ?r?
?t????
?v?I??
A??????
?R?=
?j%?R
?* ?r?
??OB??WA??{???#
_??>
??{???W
0@??
@9)?
@9 ?
q#??T?
?R_)
@9_}
@9_1
@9_1
?K!@9
TJ%@9_}
Tv?I??????j7??V
??OB??WA??{???#
_?v?I??
A??????H
?Rb=
?? ?R
?"?* ?r?
????
??{???
?I??
A??????(
?RA=
?"??
?? ?R`
?=) ?r?OB?
?=?{???#
_??=
??{???
???&@9
??h?@?
?!1??a
@?IG?R?
h(xh
???&@9
T?OB??
@??{???#
@??OB?
@??{???#
?U?;??
$@?)
T????k1-??
myjx?
T????J14??
Lyixk
?t?I?h
A??????
?R?<
?? ?R
?"?* ?r?
?????
@9??
?t?I?h
A??????
?R?<
?? ?R
?"?* ?r?
?h???
T????J
Lyixk
?????!x
T????J?2??
Lyixk
?????!?#??
@9??
?t?I?h
A??????
?RN<
?? ?R
?"?* ?r?
?????
@9??
?t?I?h
A??????
?R.<
?? ?R
?"?* ?r?
?????
T????J?-??
Lyixk
?????!?6??
T????J
Lii8k
?a???!
@9?=
?????!?(?X
@9??
?t?I?h
A??????
?R?;
?? ?R
?"?* ?r?
?h???
T????J?1??
Lyixk
?????
T????J?0??
Lyixk
?????!?
@9?I
?????! 
@9)?
?????
?v?I??
A??????
?R?;
?? ?R
?* ?r?
T????Ja0??
Lii8k
?a???
?!?#??
T?OD??WC??{A??
@??C
_??$
?????!?
?t?I?h
A??????
?R?;
?? ?R
?"?* ?r?
?h???
????
?????!X
?a???!H
?a???!?7??
?????!?>??
?a???!?
?a???!?
?a???!?
?a???!?
?????!?8?q
?a???!@#?l
?v&L9?
?w"L9
?*????
9???
?a???
????
????
??????
?y??
?a???!?;?\
?a???!?;?W
?????
?!l#?0
?????
?a???
?!?*??
?????]??
?a???!?
?a???!t
?????!L
?a???!t<?
?????!`>?,
?????!?.?'
?a???!8$?h
?7??
?a???
?!?2??
?/??
?????!?
?a???!?<?h
?"??
?????!?
?a???!?/?h
??{???O
?(?@??
?!1??a
h(8h
??OA?0
@??{???#
??{???
?I??
A??????(
?R5:
?? ?R)?"?( ?r?
??OB??{???#
_??:
??{???
?I??
A??????(
?? ?R)?"?( ?r?
??OB??{???#
_??:
??{???
?I??
A??????(
?R?9
?? ?R* ?r
??OB?
??{???#
_??:
??{???
?I??
A??????(
?R?9
?? ?R)?"?( ?r?
??OB??{???#
_?z:
??{???
?I??
A??????(
?R?9
?j"?R* ?r
??OB?
??{???#
_?V:
??{???
?I??
A??????(
?Rx9
?? ?R)?"?( ?r?
??OB??{???#
_?/:
??{???
?I??
A??????(
?RQ9
?? ?R)?"?( ?r?
??OB??{???#
??{???
?I??
A??????(
?R*9
?? ?R)?"?( ?r?
??OB??{???#
_??9
??{???O
?(?@??
?!1??a
@?????
?)9 ?
???&@9
T?OA??{???#
??OA?
@??{???#
??{???O
?(?@??
?!1??a
@?i???JN?R)i#?
???&@9
T?OA??{???#
??OA?
@??{???#
??{???O
?(?@??
?!1??a
@?IG?R?
h(xh
???&@9
T?OA??{???#
??OA?
@??{???#
??{???W
???&@9
????A?
Th?@?
?!1??a
???&@9
T?OB??WA??{???#
??OB??WA?
@??{???#
??{???
?(?@??
?!1??a
h(8h
???&@9
??h?@?
?!1??a
@?)e?R?
h(xh
???&@9
??h?@?
?!1??a
h(8h
??OB??{???#
_??8
??{???
?(?@??
?!1??a
h(8?
???&@9
??h?@?
?!1??a
?!1??a
h(8?
???&@9
@??"@9
Th?@?
?!1??a
???&@9
T?OB??
@??{???#
??OB??
@??{???#
??{???
?(?@??
?!1??a
h(8?
???&@9
??h?@?
?!1??a
?R???r?
???&@9
??h?@?
?!1??a
h(8?
@??"@9
Th?@?
?!1??a
???&@9
T?OB??
@??{???#
??OB??
@??{???#
??{???
???&@9
??i?@?*
?A1??a
?R?b
h)8?
?????h?@?
?!1??a
?R?OB?
h(8?
@??{???#
??{???
?(?@??
?!1??a
h(8h
???&@9
??h?@?
?!1??a
h(8h
???A?4
?!1??a
??OB??
@??{???#
_??6
??{???
?@9(
?!1??a
@????????R)
?!1??a
?R???R
@???@9(
?!1??a
@?i??R
h(xh
?!1??a
h(8?
?h?@?
?!1??a
h(8?B
?????h?@?
?!1??a
h(8h
???&@9
?h?@?
?!1??a
h(8??
?p???h?@?
?!1??a
h(8h
??OB??
@??{???#
_??5
??{???W
 A??
Th?@?
?!1??a
???&@9
????B?
Th?@?
?!1??a
??OB??WA??{???#
_??5
??{???
?(?@??
?!1??a
h(8h
???&@9
??h?@?
?!1??a
???&@9
??h?@?
?!1??a
???&@9
??h?@?
?!1??a
h(8h
??OB??{???#
?U?;??
?(?@?
?!1??a
@?i???
?I$?Rh
@?) ?r
???h?@?
?!1??a
h(8h
@???_?
T?OD??{B??
@??C
_??4
? ??
??{???O
?(?@??
?!1??a
?RJ??r?
???&@9
T?OA??{???#
??OA?
@??{???#
??{???O
?(?@??
?!1??a
@?i???
?)?.?
???&@9
??h?@?
?!1??a
h(8h
??OA??{???#
_?84
??{???O
T?????
?)95??
+ih8J
?????
?????
?????
?????
?????
?????
?!1??a
@?i???
?R+a@?)
@?Ka
?!1??a
@?i???
?)?#?(
?=IA
?!1??a
@?i???
?))<?!
@?(?C?B
?!1??a
@?i???)?.?
?!1??a
@?i???)a$?!?@?
?RA?
?=I?
?!1??a
@?i???
?)?>?H
?R!?@?"
??RA?
?=Ia
??OA??{???#
_??3
??????????)a2?J?2?
?~?+i??Hi??!
_?_$
??{???
`@9?
4h?@?
?!1??a
h(8h
Th?@??
?!1??a
??OB??
@??{???#
_?73
??{???
??h?@?
?!1??a
@?j+?R
?RJ,?r
???A?4
?!1??a
?!1??a
h(8h
??OB??{???#
_??2
??{???O
?)?@??
?A1??a
?R?B
h)8?
?*???h?@?
?!1??a
?R?OA?
h(8?{???#
_??2
@9*?
?A??T
@8)?
1h??T?
_??}
_??#
??{???W
?I??
A??????(
?R?1
#?RJa8??
@??OB?+ ?r?WA?
??{???#
_?T2
??{???
???&@9
??h?@?
?!1??a
@?IG?R?
h(xh
???&@9
T?OB??
@??{???#
@??OB?
@??{???#
??{???O
T?????
?)Q5??
+ih8J
?????
?????
?????
?????
?????
?????
?!1??a
@?i???
?R+a@?)
@?Ka
?!1??a
@?i???
?)?#?(
?=IA
?!1??a
@?i???K.?R)%
????rh
?!1??a
@?i???)?
?!1??a
@?i???)]
?K??R
@?+??r?
?!1??a
@?i???
?R+Q@?)
@?KQ
??OA??{???#
_?f1
??????????)!3?J?3?
?~?+i??Hi??!
_?_$
@? yh?
@??$
????T?
_?_$
@? yh?
@??$
????T?
_?_$
@? yh?
@??$
????T?
_?_$
@? yh?
@??$
????T?
_?_$
@? yh?
@??$
????T?
_?_$
@? yh?
@??$
????T?
_?_$
??{???O
?(?@??
?!1??a
h(8?B
???h
?)?_8??
?!1??a
h(8h
?!1??a
h(8h
??OA??{???#
_??0
??{???
???&@9
???&@9
T?OB??
@??{???#
@??OB?
@??{???#
??{???O
?(?@??
?!1??a
@?j??R
?R?L?r?
???&@9
T?OA??{???#
??OA?
@??{???#
?y??
??{???O
?(?@??
?!1??a
@?I????+?R)
??L?r?B
?T???h?@?
?!1??a
?R?OA?
h(8?{???#
_??/
_?_$
_??#
??{???O
$@9?
7h?@?
?!1??a
h(8h
???&@9
T?OA??{???#
??OA?
@??{???#
??{???O
?(?@??
?!1??a
h(8??
?????h?@?
?!1??a
h(8h
???:@?H
6h?@?
?!1??a
?i??R???r
??:@?i
6h?@?
?!1??a
@?i???
?)y=??
??:@?i
6h?@?
?!1??a
@?i???
???@9
Th?@?
h?@?
?!1??a
??RI
?!1??a
??Ri
???&@9
T?OA??{???#
??OA?
@??{???#
??{???
???&@9
??h?@?
?!1??a
h(xh
???A?4
?!1??a
?!1??a
h(8h
??OB??{???#
_?_.
?W?;??
 @??
@9_?
@9_Y
@9_-
@9_=
?t?I?h
A??????
?RK-
?? ?R
?"?* ?r?
?h???*
?h&@?*
@9_?
@9?e
?V????
?R?&??(
?h&@?
@9_?
q ??T_
@9?=
?3????
?7??????
?????@
?h&@?
?u?I??
A??????
?R?,
?* ?r?
????
T?OF??WE??_D??gC??{A??
@???
?U?C??
??????
??????
?????i"@??
????T???
A???}?)
???h
?v?I?h
A??????
?R?,
?*"?R
?* ?r?
?M??
???}??
?????h
?z?I?h
?>?????
?Rk,
????
??{???_
 @??
@9??
@9k?
?,?_8
@8??
q???T)
@9?Y
?P????
4v?I??
A??????
??.@9l
???@x
@9_?
@9_?
@9_?
@9_?
@9_?
@9_?
@9_?
@9_?
T?"@9_?
@9J?
?m?_8
@8??
q???Tw
?U??? 
?x?I??
??????
?R?+
?J ?R
?* ?r
?0????
?x?I??
??????
?R{+
?J!?R
????
??OC??WB??_A??{???#
????
??{???
?I??
A??????(
?RW+
?? ?R)?"?( ?r?
??OB??{???#
?V?;??
@???
@9_?
@9_?
1(??TH
?J????
?u?I??
A??????
?*#?R
?* ?r?
????? 
?h&@?
@9?}
?#????
?w?I??
A??????
?R?*
?*#?R
?* ?r?
?w?I??
A??????
?R?*
?? ?R
?"?+ ?r?
?h&@??
@9_}
@9??
@???_?
T?OE??WD??{B??
@???
??????
?@????#
????
??{???
$@??
@9?Q
@9??
Tu?????/??
@??OC??
??WB??{???#
????
u????N
u????r/??
??????
Tw?I??
??????
?RU*
?? ?R+ ?r?
@??OC??WB??{???#
??{???
?I??
A??????(
?R.*
?R?OB??
?,%@9
?( ?R?
??{???#
_??*
??{???W
?I??
A??????(
@?J?
?( ?Rl
@??OB?
??WA?
9*%@9
9?{???#
_??*
??{???
?I??
??????(
?R?)
?? ?R
? ?* ?r?
?I???)?7??
??OB?*!
??{???#
_??*
??{???
?I??
??????(
?R?)
?? ?R
? ?* ?r?
?i???)?
??OB?*)
??{???#
_?j*
??{???O
?(?@??
?!1??a
@?I???
???&@9
??h?@?
?!1??a
h(8h
??OA??{???#
_?$*
??{???O
?(?@??
?!1??a
?RJ??r?B
?k???h?@?
?!1??a
?R?OA?
h(8?{???#
_??)
_?_$
_??#
??{???
??h?@?
?!1??a
h(8h
@??{???#
_??)
??{???O
?(?@??
?!1??a
h(8?b
???h?@?
?!1??a
h(8h
???*@?H
6h?@?
?!1??a
?i??R???r
??*@?i
6h?@?
?!1??a
@?i???
?)y=??
??*@?i
6h?@?
?!1??a
@?i???
???@9
Th?@?
h?@?
?!1??a
??RI
?!1??a
??Ri
?h?@?
?!1??a
h(8?
???&@9
T?OA??{???#
??OA?
@??{???#
??{???
???&@9
??h?@?
?!1??a
h(8h
???A?4
?!1??a
?!1??a
h(8h
??OB??{???#
_??(
??{???
???&@9
??h?@?
?!1??a
h(8h
???A?4
?!1??a
??OB??
@??{???#
_?8(
_?_$
_?_$
_??#
??{???O
6h?@?
?!1??a
?i??R???r
6h?@?
?!1??a
@?i???
?)y=??
6h?@?
?!1??a
@?I???
??OA??{???#
_??'
??{???
?I??
A??????(
?R?&
?"??
?? ?R`
?=) ?r?OB?
?=?{???#
_??'
??{???
?I??
A??????(
?R?&
?J#?R* ?r
??OB?
??{???#
_?g'
??{???W
?I??
A??????(
?R?&
?+#?RJ!
@??OB?+ ?r?WA?
??{???#
_?A'
??{???O
?(?@??
?!1??a
@?I???
?)?/??
?*Q@?)
???&@9
??h?@?
?!1??a
h(8h
??OA??{???#
_??&
??{???
???&@9
??h?@?
?!1??a
????l??????In??
h(?h
???&@9
??h?@?
?!1??a
h(8h
??OB??{???#
_??&
??{???W
?I??
A??????(
?R?%
?RJ?
@??OB?
 ?r?WA?
??{???#
_?}&
_?_$
_?_$
??{???
?)?_8?u
?!1??a
h(8h
?!1??a
h(8h
???&@9
??h?@?
?!1??a
h(8h
??OB?0
@??{???#
??{???W
?I??
A??????(
?R.%
?*%@9
@??OB?( ?R
9?WA?
y?{???#
_??%
_??#
??{???O
(@9H
6h?@?
?!1??a
h?@?
?!1??a
h(8?
???&@9
??h?@?
?!1??a
?RJG?R
??OA??{???#
_?k%
??{???O
(@9H
6h?@?
?!1??a
h(8h
??OA?
@??{???#
??{???W
 A??
?!1??a
?!1??a
h(8?
???&@9
T?OB??WA??{???#
??OB??WA?
@??{???#
_??#
??{???
??"@9
@?(!@9
T(%A?*
TJ???J?3?
?!??T?
?????
6h?@?
?!1??a
h(8h
(@9H
6h?@?
?!1??a
h(8h
?????
?!1??a
h(8?
@??OC?
??WB??
@??{???#
_?H?
?!1??a
?R*??R
???A?4
?!1??a
?!1??a
?R???
??{???O
@?(!@9
T(%A?*
TJ???J?3?
?!??T?OA??{???#
(@9H
6h?@?
?!1??a
h(8h
??OA?
@??{???#
_??#
??{???
p@9?
?????
???*@9(
6@???A
h7?O
???@?
?!1???
@?A???
?!h7??
??*@9h
7?.@9(
6@???A
???@?
?!1???
@?A???
?H???I???
???@?
?!1???
9?OC??WB??
@??{???#
??{???W
p@9h
?????
?*@9h
7?.@9(
6@???A
?%??
???@?
?!1???
@?A???
?!?%??
9?OB??WA??{???#
_??"
??{???
????A?
Th?@?
?!1??a
??OB??
@??{???#
_??"
?W?;??
?U?x??
`???#
?ve???
??????
??i???
??3@??
T??@????<?
@?h?
?`??<j?
`??he???????i???
??3@?
Th&~?u?????
??3@?
@???_?
T?OG??WF??{D??+@??
?U?;??
@8?c
???^?
@8??
@?k!??)
?j??7h
@8??
@?k!??)
?j??7
}@??
??O>??
@??!??J
?k??7_
????Tj
?b??T
???]?
????R
@?k!??)
?j??7?
??!???'?
T??]??
4h????C
!4??
?????*`???
@?je???????i??
T??Z??
@??C
?#@?
?????(`???
?he???
@??????i??
T??Z?
?#@?h
@??!??)
?k??7?
??!???'?
????
@??*
@???_?
T?OK??WJ??_I??gH??oG??{F??
@??^
?????(`??he???????i??
Th?Z??
????
@??^
???(`???
@?he???????i??
Th?Z??
????
?W@??
?R?^
_??*
????
@??^
?R??
????
@?? 
?\?x???? 
???\?s????
?`?\?k????
@?? 
?B????
6?N|???
???????^?
?8???~ 
@9??
??????
@?J!??
?i??7u$
@?[???w?
????
???(`??he???????i??
C??B
???= 
?R? 
C?? 
h;@??
??????#
??{???
Tj???
@?J?3??
Mih8?
?H?@?,
@??!???
?m??7
?H%@x,
?HE@?,
?H%?x,
?HE??,
??{???#
_??$
@??!???
?m??7?
???'?
?!???
SL??5???
?X?;?
@???
*???R?
 ?|????
?J%?
?#4?J
@?k!??
?J??7s
4?{y??C
?w????
???_??
T?OG??WF??_E??gD??oC??{B??
?`?\?=????
??{???
?@???
?=??????#
??{???
? ???
$??????#
?T?;?
T?OB??{A???
??{???
?A??
?J?B?J
?m?~?+
????T?
Ki*(?h
@??{???#
_??????#
??{???
??????
@??OB??{???#
_?_$
??{???O
?A??
Tn?_x?
@ym?~??
?A??T?
h?_x
??OA??{???#
_?G???_$
T???
 ?_$
_?_$
_??#
??{???
@??{???#
??{???
@??{???#
??{???
@??{???#
??{???
@??{???#
??{???
@??{???#
??{???
@??{???#
??{???
@??{???#
??{???
@??{???#
??{???
@??{???#
??{???
@??{???#
_?_$
_?_$
_?_$
_??#
?U?;??
@???
????
@??#
?R??
?R?s?<???<???<?S
???;@?
@???_?
T?OH??{F??;@??C
T(<@?I
_?(0@?
??T#0
_?_$
T(<@?I
_?(0@?
q???T#0
_?_$
T(<@?I
_?(0@?
??T#0
_?_$
?H??
@?Iii?
??{???_
?H?(
@?Iii?
Th>@?I
???_??
?H??
@?Iii?
??h:A9?
?c??T
h2@?
??OC??WB??_A??{???#
_??#
??{???O
@@9?
C?-!
r???T?
????
*?OA??{???#
_??#
?V?;??
@@9?
C?? 
r???T?
? ??T?
C?? 
?J!C?!
C?? 
??B@9??
@???_?
@???_?
T?OH??WG??{F??C
?B$C?? 
@??????
C?B(C?? 
??B@9??
????
@??????
C?? 
????
@??????
C?? 
?????
????
@??#
?R??
?R?s?<???<???<?S
???;@?
a??Th
@?(????
@?p??
??{???W
??????
*?OB??WA??{???#
?R???
????
C?B(C?9 
? ????
@??OB??WA??{???#
??{???
C?B(C??
@??{???#
??{???
ThB@9?
C?B$C??
?h???
A9?*
r!??Th
?`??T?
C?B(C??
h???
?9? 
??OB??
@??{???#
?T?;??
????<???<
??s?<
@??#
???G@?
5??G)
q?K@? 
?R?#
???;@?
?;@?
T?K@??
5??@?
T?C@?
@???_?
T?OG??{F??
@?(0
T(<@?
?!??T(H@?
(0@?
?)H@??
q???T
q???T(
?R(8
_?_$
_?(4@?
q???T#4
_??#
??{???
ThF@?v:
????T?
?H?h
@?Iii??
@?8a
7i>@??
Th:A9h
?H?(?
@?Iii????
Th6@?
?H?h
@?Iii?@
??h:A9
5h6A9H??4h2A9(
4h2@?
T?B@98
?R(?
?B@9h
?R???
?Rh:
Th:A9h
5h>@?
Th2@?
?H?h?
@?Iii????
Th:A9H
5h>@?
?H???
@?Iii????
?RhF
7i?G)t
Th2@?
?Rh:
9?OE??WD??_C??gB??
@??{???#
_?_$
?H?h
@?Iii?
?H?h
@?Iii?
??{???_
ThF@?u:
??h6A9
4h2A9i
?RiF
????T?
@??OC??WB??_A?
@??{???#
Th6@?
?Rh:
?RhF
?i?G)t
Th2@?
?Rh:
9?OC??WB??_A??{???#
_??#
??{???
Ti?G)t:
Th2@?
?Rh:
?RhF
Th6@?
?Rh:
??OC??WB??
@??{???#
_??#
??{???o
@?h2
Th>@?
????Ty2A9|6A9
?H?h
@?Iii?
??h2A9
qi6A9
??h2A9
?i6A9
Tj:A9J
4h2@?
C@9?
@?Iii????
9?OE??WD??_C??gB??oA??{???#
?a??ThJ@?
h2@?
?iJ@??
q!??T
q???T(
?Rh:
9???
??{???_
@?h2
Th>@?
????T
@??OC??WB??_A?
@??{???#
ThJ@?
h2@?
?iJ@??
?Rh:
9?OC??WB??_A??{???#
_??#
??{???W
@?h2
Th>@?
ThJ@?
h2@?
?iJ@??
?Rh:
9?OB??WA??{???#
_?_$
_?_$
? ???
?$??
_?_$
?@???
4>??
_?_$
_?_$
? ???
?3??
_?_$
_?_$
? ???
_??#
??{???O
??OA??{???#
??{???O
??OA??{???#
_??#
??{???O
??OA??{???#
??{???O
??OA??{???#
_??#
??{???O
??OA??{???#
??{???O
??OA??{???#
??{???O
??OA??{???#
??{???O
??OA??{???#
??{???O
??OA??{???#
??{???O
??OA??{???#
??{???O
??OA??{???#
_?_$
_?_$
??{???
@??{???#
? ???
?/??
_?_$
_?_$
??{???
@??{???#
? ???
?3??
_??#
???6
??VE??
?"?}??
?!@*??
?B?6
?6????
??VE??
??????F
?}??B
??VE??
????
??OC??WB??_A??
D??#
??O???
9?O???#
_??#
?!0+?.
A??#
??W???O
? UE??OA??W???#
T?zt????? ?_?+
@????
??OA??W???#
BV9p
4A????
?@?_?
????5?
_??#
*?OF??
_?@????
? ??
T!????
h"H?
?OF??
_?_$
BV9p
4 ????
? ?_?0?
????5?
BV9p
* ?_?
????5?
_?_$
BV9p
? |_?
????5?
_?_$
BV9p
? ?_?
????5?
_??#
??{???O
?R?C
??OA??{???#
]?????b
q???T
[???
??OA??{???#
?R?C
??OA??{???#
_??#
?7?#
@?h?????_? 
T??_??
????Th
?!???"???#???!
?BX+?
?B?cx%?
?R?OG??WF??{E??
?R?OG??WF??{E??
_??#
??{???O
?????
@???
?!???"???#???!
?B???
?B?c?/?
???OG??WF??{E??
??T?#
?`??5?
??`??5?
@??????
q???T
q???T?
????
??{???W
?????@
??OB??WA??{???#
_??#
??{E?
????
_??#
??{E?
????
_?_$
_??#
??{A??
@???
_?_$
??{A??
@???
_?_$
??{???O
! ?)E
"?R?
?a?I?
*b?H??
?a?K?b?J??
?a?M?b?L??
?`?O?c?N??
??<?
??OA??
*?{???#
_??#
??{???
??OB??
@??{???#
_??1?
?OB??
@??{???#
_??#
@??#
*?OG??{E??3@??
_??1?
?OG??{E??3@??
_??#
??{???
??OB??
@??{???#
_??1?
?OB??
@??{???#
_??#
*?OB??{A??
C??#
_??1?
?OB??{A??
C??#
_??#
??{???
???{???#
_??#
??{???
??2?
?{???#
_??#
??{???
??`1?
?{???#
_??#
??{???
??h1?
?{???#
_??#
??{???
?{???#
_??#
??{???
???{???#
_??#
??{???
?{???#
_??#
??{???
?D???D??
????D??
?c??T?OB??
??{???#
????<
?=??D?
?3?D?5
???~???E???C?]
?=4?
??OM??WL??_K??gJ??{H??K@???
_??#
??{???
G@??
T ???
08?B
?B@??2
????? ???
 ???
??b@9?c
??b@9?
???@9?
@??f@9z
??f@9?c
??OE??WD??_C??gB??
@??{???#
_??#
??{???
?)?D?
?D??
?`??T?
??T!
????
??{???#
??C???E??
@?ZS
?RD???
?@???
?D?)?D??
????T?
?D?7
???~?f
? ??T?
????
?ON??WM??_L??gK??oJ??{I???
_??#
??{???
??R_?
E@??
4 ???
|&??
?B@??2
??????
@8???5?c
@??!??k
??7m
????
q?!???'?
@9`?
 ???
?8?F
?y???8
?R9s
*ki8
9???
@??c
????
9???
????
????
(??5h
??OD??WC??_B??
@??{???#
?!???"???#???!
?B?,?
?B?c
??{???
?)?D?
?D??
?`??T?
??T!
????
??{???#
_?_$
_?_$
_??|
1?'?
_??#
??{???
Ti???)U
+ih8J
@??{???#
_??$
@??{???#
_??$
@??{???#
_??$
@??{???#
_??$
@??{???#
_??$
@??{???#
?!???"???#???!
?B?8?
?B?c?+?
??{???
TI???)?
+ih8J
??{???#
_??$
??{???#
_??$
L!??
??{???#
_??$
??{???#
_??$
??{???#
_??$
??{???#
?!???"???
???!
?B00?
?B?c?+?
_?_$
_?_$
_??#
??{???
?I9(
??OB??
@??{???#
?I9?
q???T
hR@??
?b.A?cB
q???Th
??h?I9???5???
?I9?
??= 
??=!
_?_$
?I9?
_??#
??{???
*?{???#
_??#
??{???W
0(??c
4??@??
?D?)?D?
?h??T
??T?
@???
*?????
??R?
@???
6?3@?i?
???@?h
`?R*
?<k"
???C?`??=?
??OB??WA??{???#
??OB??WA??{???#
?Rh?
??OB??WA??{???#
_?_$
?@??
?*?@?
?*?@?
?*?@?
?*?@?
?*?@?
?*?@?
?*?@?
?*?@?
?*?@?
?*?@?
?*?@?
?*?@?
?*?@?
?*?@?
?*?@?
?*?@?
?*?@?
?*?@?
?*?@?
?*?@?
?*?@?
?*?@?
?*?@?
?*?@?
?*?@?
_??#
??{???o
???#??
?V???
??R??
B?R?c
?T????
??#??OE??WD??_C??gB??oA??{???#
_??$
iv??$
Q(O(?
?z??)
@??gZ?(?
?hv??
?@????
?#\8_
????T
TM????
?y??k
?#\8_
????
??+@?
????
TL????'@???
?y??J
????
@????
??#@??$
@????
????
????
\8?WB??
??3\8?
B?R??
?R`??
?!???
???!
?BD=?
?B?c
?!???"???
???!
?B?8?
?B?c?+?
?!???"???
???!
?B00?
?B?c?+?
??{???o
?I(@?
????
@?W????
?*0@???<?+4A???=??
???>?j?
@??c
T?c@??
??:@????T?
?zjxk
??b@9?
??*@?H}
??.???
?K?A8+
5K?|?m?
????<,
?R`??<L
?|??
?*?A8*
?|?l?
?`??<+
?R@??<+
?*?A8*
?|?l?
?`??<+
?R@??<+
?*?A8*
5J?|?l?
?`??<+
?R@??<+
??R?
?*?A8*
?|?l?
?`??<+
?R@??<+
@??!??J
??7?
??'?
???!???
Kj??A8K
???.???
?|?o?
????<.
?R ??<?
@??!??)
??_?
q?!???'?
Kj?.@?)
@??!??J
??7K
q?!???'?
Lj?.@?J
??.???
?K?A8+
5K?|?m?
????<,
?R`??<L
@??!??J
??7?
??'?
???!???
Kj??A8K
???.???
?|?o?
????<.
?R ??<?
?*?A8*
?|?l?
?`??<+
?R@??<+
??R:??.??
?A8*
5j?|?l?
?`??<@??<*
T??H9?
5i"A?
?=??
9?"A?
@??"
??.???
?K?A8+
5K?|?m?
????<,
?R`??<L
?*@?
q@9?
4H?|?i?
? ??<
??<?$
????T?
??T???
`0??
? ???
? ???
l)?C
? ???
X0??
?+??
? ???
? ???
? ???
? ???
???!
???!
? ???
??OE??WD??_C??gB??oA??{???#
?!???
???!
?B?,?
?B?c
?!???
???!
?B?,?
?B?c
?!???
???!
?B?,?
?B?c
?!???
???!
?B?,?
?B?c
??{???
TJ???J
Lii8k
??{???#
??{???#
?!???"???
???!
?B?8?
?B?c?+?
??{???
TJ????
Lii8k
@? ih??$
@??{???#
_??$
TJ???J?
Lii8k
@??{???#
_??$
@??{???#
_??$
@??{???#
@??{???#
_??$
}@?H
@??{???#
_??$
@??{???#
_??$
@??{???#
_??$
@??{???#
_??$
?!???
???!
?B$-?
?B?c
?!???"???
???!
?B?8?
?B?c?+?
??{???
TI???5
@?)Q
+ih8J
?@?(
%@x(
E@?(
%?x(
E??(
@??!??J
??7K
q?!???'?
TJ???J?
Lii8k
@??OB??
@??{???#
_??$
????7???
?!???
???!
?B?,?
?B?c
?!???
???!
?B,4?
?B?c?
?!???
???#???!
?B,4?
?B?cL
?!???
???!
?B,4?
?B?c
?!???
???!
?B,4?
?B?cD
?!???
???#???!
?B,4?
?B?c(9?
?!???
???!
?B,4?
?B?c?
??{???
??{???#
????6_
????6_
????6_
??6_
?+??6_
?K??6_
O?*!
?k??6_
T+!?9j
H?*%
????6_
??{???#
?!???"???#???!
?B?c
?!???"???#???!
?B?c8
??{???o
?~?????_??
?Z???u?
@?h?
???_??
T???
M{kx?
Q???
@??!???
??7?
????
q?!???'?
Nj??
??_?
TM????
?ij8?
q???T?
q???T?
q ??THA
QhN(????
ThN+?
????
?????_??
@??!??J
??7K
q?!???'?
TL????
?ykx?
?_?_
??'?
@??$
?x??
?????`?
?Z??
@??!??J
??7K
q?!???'?
?B??
@?>??
?<??
?h?_?8??
?`??<
n`??<4??
@?`??<h
?.??
@?h?
?)??
@?????"
?_?I
?_?I
?_?I
?_?K
??i?
?_?I}
????
?_?I
?_?I
?R???h
????
?_?I!??>
?_?I%??8
?_?I)??2
?_?I
?xj?_???
?J???
????
?_?_
?_?_
??7?
?_?_
????
?_?_
????
?_?_
????
TJ???J1
????
Lyixk
????
????
?????
TJ????
????
Lyixk
?v??
?u??
?q??
ThN ?i??
?f??
?c??
?`??
TiN ?
?P??
??OE??WD??_C??gB??oA??{???#
???!
?B?,?
?B?c
???!
?B?,?
?B?c
???!
?B?,?
?B?c
???"???
???!
?B?8?
?B?c?+?
???#???!
?B?#?
?B?c?
???!
?B?#?
?B?cD7?
???#???!
?B?#?
?B?c?>?
???!
?B?#?
?B?c?
???"???
???!
?B?8?
?B?c?+?
???"???
???!
?B?8?
?B?c?+?
??{???o
A??C
?D@5?
@??C
?c*@??c
?D?)?D?
?a??T
????T
?h??T
??T`
A??C
A??C
??Ry
@??C
?Rd????
q??@? 
`?R?7@??
?#E?J
?(?D?I?D?
?D?5
???~???E???C??
??OE??WD??_C??gB??oA??{???#
_??#
0@y?
*?OF??WE??_D??gC??oB??{A???
????T
ij??
qa??T
????T?
?B??TK
??R;
?Rk?B????r,5
@?*}
ij?_
????
?=?"
r@??T?
@?*}
ij?_
??T???
@9?#
?8????
?/???h
????
E@??
?IC@??
?*??4
????T?
????T?
?????
????
@??#
??b@9?
??????b@9?
?????
????T
?C??T??@9
??????
@??f@9
??????
??f@9?#
?????`
*?OF??WE??_D??gC??oB??{A???
????
@9Y@#??
?????_?
??????
???^???_???
TT?A??#
???^?
?~????
1?????T
?=??
*?OH??WG??_F??gE??oD??{C??C
_??r
???^???@??#
?[????#
?U????
????
????T?
??T 
?R???
??{???
TI????
?R)Y
+ih8J
?R?$
@??{???#
_??$
@??{???#
_??$
???"???#???!
?B?c?0?
???!
?B?c
TI???)?
?(??? 
 :??
_?_$
_?_$
?A????
?{??P
" ? 
B ? 
b ? 
? ? 
? ? 
? ? 
? ? 
"!? 
B!? 
b!? 
?!? 
?!? 
?!? 
?!? 
""? 
B"? 
b"? 
?"? 
?"? 
?"? 
?"? 
"#? 
B#? 
b#? 
?#? 
?#? 
?#? 
?#? 
"$? 
B$? 
b$? 
?$? 
?$? 
?$? 
?$? 
"%? 
B%? 
b%? 
?%? 
?%? 
?%? 
?%? 
"&? 
B&? 
b&? 
?&? 
?&? 
?&? 
?&? 
"'? 
B'? 
b'? 
?'? 
?'? 
?'? 
?'? 
"(? 
B(? 
b(? 
?(? 
?(? 
?(? 
?(? 
")? 
B)? 
b)? 
?)? 
?)? 
?)? 
?)? 
"*? 
B*? 
b*? 
?*? 
?*? 
?*? 
?*? 
"+? 
B+? 
b+? 
?+? 
?+? 
?+? 
?+? 
",? 
B,? 
b,? 
?,? 
?,? 
?,? 
?,? 
"-? 
B-? 
b-? 
?-? 
?-? 
?-? 
?-? 
".? 
B.? 
b.? 
?.? 
?.? 
?.? 
?.? 
"/? 
B/? 
b/? 
?/? 
?/? 
?/? 
?/? 
"0? 
B0? 
b0? 
?0? 
?0? 
?0? 
?0? 
"1? 
B1? 
b1? 
?1? 
?1? 
?1? 
?1? 
"2? 
B2? 
b2? 
?2? 
?2? 
?2? 
?2? 
"3? 
B3? 
b3? 
?3? 
?3? 
?3? 
?3? 
"4? 
B4? 
b4? 
?4? 
?4? 
?4? 
?4? 
"5? 
B5? 
b5? 
?5? 
?5? 
?5? 
?5? 
"6? 
B6? 
b6? 
?6? 
?6? 
?6? 
?6? 
"7? 
B7? 
b7? 
?7? 
?7? 
?7? 
?7? 
"8? 
B8? 
b8? 
?8? 
?8? 
?8? 
?8? 
"9? 
B9? 
b9? 
?9? 
?9? 
?9? 
?9? 
":? 
B:? 
b:? 
?:? 
?:? 
?:? 
?:? 
";? 
B;? 
b;? 
?;? 
?;? 
?;? 
?;? 
"<? 
B<? 
b<? 
?<? 
?<? 
?<? 
?<? 
"=? 
B=? 
b=? 
?=? 
?=? 
?=? 
?=? 
">? 
B>? 
b>? 
?>? 
?>? 
?>? 
?>? 
"?? 
B?? 
b?? 
??? 
??? 
??? 
??? 
" ? 
B ? 
b ? 
????????
????????????????
????????
????????????????
????????????????
????????????????
P???????P???????
P???????P???????
????????????????
????????????????
????????????????
????????????????
????????
????????????????
???????
???????
???????
???????
????????????????
????????????????
????????
????????
????????
????????
???o
???o
???o
???o
???o
???o
????
Linker: LLD 14.0.7
Android (9352603, based on r450784d1) clang version 14.0.7 (https://android.googlesource.com/toolchain/llvm-project 4c603efb0cca074e9238af8b4106c30add4418f6)
.init_array
.fini_array
.text
.got
.comment
.note.android.ident
.got.plt
.rela.plt
.bss
.dynstr
.eh_frame_hdr
.gnu.version_r
.data.rel.ro
.rela.dyn
.gnu.version
.dynsym
.gnu.hash
.eh_frame
.gcc_except_table
.note.gnu.build-id
.dynamic
.shstrtab
.rodata
.data
???o
???o
???o
